Archive member included to satisfy reference by file (symbol)

../../../stack/ble/lib/libble_b92.a(ble.o)
                              ./apps/common/tlkapi_debug.o (symbol from plugin) (tlk_strlen)
../../../stack/ble/lib/libble_b92.a(ll.o)
                              ./apps/common/zigbee_ble_switch.o (symbol from plugin) (get_ble_next_event_tick)
../../../stack/ble/lib/libble_b92.a(ll_misc.o)
                              ll.o (symbol from plugin) (blt_calBit1Number)
../../../stack/ble/lib/libble_b92.a(ll_sche.o)
                              ll.o (symbol from plugin) (bltPri)
../../../stack/ble/lib/libble_b92.a(ll_system.o)
                              ./apps/sampleLight_concurrent/sampleLightBLE.o (symbol from plugin) (blc_sdk_main_loop)
../../../stack/ble/lib/libble_b92.a(acl_central.o)
                              ./apps/sampleLight_concurrent/sampleLightBLE.o (symbol from plugin) (blc_ll_initAclCentralTxFifo)
../../../stack/ble/lib/libble_b92.a(acl_conn.o)
                              acl_central.o (symbol from plugin) (AA_blms)
../../../stack/ble/lib/libble_b92.a(acl_conn_2.o)
                              ./apps/sampleLight_concurrent/sampleLightBLE.o (symbol from plugin) (blc_ll_setMaxConnectionNumber)
../../../stack/ble/lib/libble_b92.a(acl_peripheral.o)
                              acl_conn.o (symbol from plugin) (bls_conn_sel)
../../../stack/ble/lib/libble_b92.a(acl_phy.o)
                              acl_conn.o (symbol from plugin) (blt_cfg_conn_phy_param)
../../../stack/ble/lib/libble_b92.a(adv.o)
                              acl_peripheral.o (symbol from plugin) (blc_rcvd_connReq_tick)
../../../stack/ble/lib/libble_b92.a(ext_adv.o)
                              acl_peripheral.o (symbol from plugin) (blt_pextadv)
../../../stack/ble/lib/libble_b92.a(ext_adv_2.o)
                              ext_adv.o (symbol from plugin) (blt_updateExtAdvSet)
../../../stack/ble/lib/libble_b92.a(leg_adv.o)
                              ext_adv.o (symbol from plugin) (bltLegAdv)
../../../stack/ble/lib/libble_b92.a(chn_class.o)
                              acl_conn.o (symbol from plugin) (ll_acl_chnclass_ctrl_handler)
../../../stack/ble/lib/libble_b92.a(init.o)
                              acl_central.o (symbol from plugin) (pkt_init)
../../../stack/ble/lib/libble_b92.a(leg_init.o)
                              acl_central.o (symbol from plugin) (bltInit)
../../../stack/ble/lib/libble_b92.a(leg_scan.o)
                              ./apps/sampleLight_concurrent/sampleLightBLE.o (symbol from plugin) (blc_ll_initLegacyScanning_module)
../../../stack/ble/lib/libble_b92.a(scan.o)
                              ll_sche.o (symbol from plugin) (bltScn)
../../../stack/ble/lib/libble_b92.a(phy.o)
                              ll_system.o (symbol from plugin) (bltPHYs)
../../../stack/ble/lib/libble_b92.a(phy_2.o)
                              ll.o (symbol from plugin) (blt_ll_phy_param_reset)
../../../stack/ble/lib/libble_b92.a(resolvelist.o)
                              scan.o (symbol from plugin) (blRslvLst)
../../../stack/ble/lib/libble_b92.a(whitelist.o)
                              ll.o (symbol from plugin) (blc_ll_clearWhiteList)
../../../stack/ble/lib/libble_b92.a(darwin_fmn.o)
                              leg_adv.o (symbol from plugin) (custom_darwin_fmn)
../../../stack/ble/lib/libble_b92.a(debug.o)
                              acl_conn.o (symbol from plugin) (stkLog_mask)
../../../stack/ble/lib/libble_b92.a(hci.o)
                              ll.o (symbol from plugin) (bltHci_rxAclfifo)
../../../stack/ble/lib/libble_b92.a(hci_event.o)
                              acl_conn.o (symbol from plugin) (hci_disconnectionComplete_evt)
../../../stack/ble/lib/libble_b92.a(hci_vendor.o)
                              hci.o (symbol from plugin) (hci_vendor_getCurrentEventCode)
../../../stack/ble/lib/libble_b92.a(host.o)
                              ./apps/sampleLight_concurrent/sampleLightBLE.o (symbol from plugin) (blc_host_checkHostInitialization)
../../../stack/ble/lib/libble_b92.a(att_v0.o)
                              ./apps/sampleLight_concurrent/sampleLightBLE.o (symbol from plugin) (bls_att_setAttributeTable)
../../../stack/ble/lib/libble_b92.a(gatt_v0.o)
                              att_v0.o (symbol from plugin) (blt_gatt_requestServiceAccess)
../../../stack/ble/lib/libble_b92.a(gap.o)
                              att_v0.o (symbol from plugin) (blc_gap_getMasterSlavePara)
../../../stack/ble/lib/libble_b92.a(gap_event.o)
                              ./apps/sampleLight_concurrent/sampleLightBLE.o (symbol from plugin) (blc_gap_setEventMask)
../../../stack/ble/lib/libble_b92.a(gattc.o)
                              att_v0.o (symbol from plugin) (blt_gattc_mtuSizeExchangeReq)
../../../stack/ble/lib/libble_b92.a(tlk_list.o)
                              host.o (symbol from plugin) (sList_headInsertNode)
../../../stack/ble/lib/libble_b92.a(tlk_malloc.o)
                              host.o (symbol from plugin) (tlk_initialNonRetentionBuffer)
../../../stack/ble/lib/libble_b92.a(tlk_timer.o)
                              gap.o (symbol from plugin) (soft_timer_initial)
../../../stack/ble/lib/libble_b92.a(l2cap.o)
                              ./apps/sampleLight_concurrent/sampleLightBLE.o (symbol from plugin) (blc_l2cap_initAclCentralBuffer)
../../../stack/ble/lib/libble_b92.a(signaling.o)
                              l2cap.o (symbol from plugin) (blt_signal_l2capSignalRxHandler)
../../../stack/ble/lib/libble_b92.a(signaling_coc.o)
                              gap.o (symbol from plugin) (blt_l2cap_cocGetRecvMtu)
../../../stack/ble/lib/libble_b92.a(signaling_deal.o)
                              signaling.o (symbol from plugin) (blt_signal_proc_cmdRejectRsp)
../../../stack/ble/lib/libble_b92.a(signaling_eatt.o)
                              signaling_coc.o (symbol from plugin) (blt_eatt_l2capEattRxHandle)
../../../stack/ble/lib/libble_b92.a(signaling_pkt.o)
                              signaling.o (symbol from plugin) (blt_signal_packageCmdRejectRspUnderstood)
../../../stack/ble/lib/libble_b92.a(smp.o)
                              gap.o (symbol from plugin) (smp_sts_param)
../../../stack/ble/lib/libble_b92.a(smp2.o)
                              gap.o (symbol from plugin) (blt_smpTrig)
../../../stack/ble/lib/libble_b92.a(smp_sc.o)
                              smp.o (symbol from plugin) (blt_smp_sc_pushPkt_handler)
../../../stack/ble/lib/libble_b92.a(smp_storage.o)
                              smp.o (symbol from plugin) (smpMStblBondDevice)
../../../stack/ble/lib/libble_b92.a(ota_server.o)
                              ./apps/sampleLight_concurrent/sampleLightBLE.o (symbol from plugin) (otaWrite)
../../../stack/ble/lib/libble_b92.a(crypto_alg.o)
                              smp.o (symbol from plugin) (blt_crypto_alg_c1)
../../../stack/ble/lib/libble_b92.a(ecc_ll.o)
                              smp.o (symbol from plugin) (blt_ecc_init)
../../../stack/ble/lib/libble_b92.a(hw_ecc.o)
                              ecc_ll.o (symbol from plugin) (hwECC_set_rng)
../../../stack/ble/lib/libble_b92.a(csa1.o)
                              acl_central.o (symbol from plugin) (blt_csa1_calculateChannelTable)
../../../stack/ble/lib/libble_b92.a(csa2.o)
                              ext_adv.o (symbol from plugin) (blc_ll_initChannelSelectionAlgorithm_2_feature)
../../../stack/ble/lib/libble_b92.a(ll_aes_ccm.o)
                              acl_conn.o (symbol from plugin) (aes_ll_ccm_encryption_init)
../../../stack/ble/lib/libble_b92.a(ext_init.o)
                              hci.o (symbol from plugin) (blc_hci_le_extended_createConnection)
../../../stack/ble/lib/libble_b92.a(phy_test.o)
                              hci.o (symbol from plugin) (blt_phyTest_hci_setReceiverTest_V1)
../../../stack/ble/lib/libble_b92.a(att.o)
                              signaling_eatt.o (symbol from plugin) (blt_att_procAttrRxPkt)
../../../stack/ble/lib/libble_b92.a(att_cmd.o)
                              att.o (symbol from plugin) (blt_att_packageErrorRsp)
../../../stack/ble/lib/libble_b92.a(att_uuid.o)
                              gattc.o (symbol from plugin) (blc_uuid_cmp)
../../../stack/ble/lib/libble_b92.a(attc.o)
                              att.o (symbol from plugin) (blt_attc_proc_errorRsp)
../../../stack/ble/lib/libble_b92.a(atts.o)
                              att.o (symbol from plugin) (blt_atts_proc_exchangeMtuReq)
../../../stack/ble/lib/libble_b92.a(gatts.o)
                              atts.o (symbol from plugin) (blc_gatts_getAttributeServiceGroup)
../../../stack/ble/lib/libble_b92.a(ota.o)
                              ota_server.o (symbol from plugin) (crc32_half_cal)
../../../stack/ble/lib/libble_b92.a(uuid.o)
                              gatts.o (symbol from plugin) (descriptorReportReferenceUuid)
F:\github_version\ikea_light_project\lighting_cbb\lib/liblighting_cbb.a(lds_color_utility.o)
                              ./apps/sampleLight_concurrent/zcl_sceneCb.o (symbol from plugin) (lds_color_util_write_temp)
F:\github_version\ikea_light_project\lighting_cbb\lib/liblighting_cbb.a(lds_device_adc.o)
                              ./apps/sampleLight_concurrent/sampleLight.o (symbol from plugin) (ldsDeviceAdcInit)
F:\github_version\ikea_light_project\lighting_cbb\lib/liblighting_cbb.a(lds_device_information.o)
                              ./apps/sampleLight_concurrent/sampleLight.o (symbol from plugin) (ldsDeviceInformationInfo)
F:\github_version\ikea_light_project\lighting_cbb\lib/liblighting_cbb.a(lds_driver_common.o)
                              ./apps/sampleLight_concurrent/sampleLight.o (symbol from plugin) (ldsDriverCommonInit)
F:\github_version\ikea_light_project\lighting_cbb\lib/liblighting_cbb.a(lds_level_utility.o)
                              ./apps/sampleLight_concurrent/zcl_sampleLightCb.o (symbol from plugin) (lds_lvl_util_write)
F:\github_version\ikea_light_project\lighting_cbb\lib/liblighting_cbb.a(lds_light_control.o)
                              ./apps/sampleLight_concurrent/zcl_colorCtrlCb.o (symbol from plugin) (color_attribute_change_handle)
F:\github_version\ikea_light_project\lighting_cbb\lib/liblighting_cbb.a(lds_light_ftm_test.o)
                              ./apps/sampleLight_concurrent/sampleLight.o (symbol from plugin) (ldsDeviceAgingFunctionTestDone)
F:\github_version\ikea_light_project\lighting_cbb\lib/liblighting_cbb.a(lds_on_off_utility.o)
                              lds_light_control.o (symbol from plugin) (lds_onoff_util_read)
F:\github_version\ikea_light_project\lighting_cbb\lib/liblighting_cbb.a(lds_trf.o)
                              ./apps/sampleLight_concurrent/sampleLight.o (symbol from plugin) (ldsDeivceNtcInit)
F:\github_version\ikea_light_project\lighting_cbb\lib/liblighting_cbb.a(xosal_timer.o)
                              lds_trf.o (symbol from plugin) (ldsTimerCreate)
F:\github_version\ikea_light_project\lighting_cbb\lib/liblighting_cbb.a(lds_attribute_wrappers.o)
                              lds_color_utility.o (symbol from plugin) (lds_wrapper_attribute_server_write)
F:\github_version\ikea_light_project\lighting_cbb\lib/liblighting_cbb.a(lds_mfg_token_config.o)
                              ./apps/sampleLight_concurrent/sampleLightBLE.o (symbol from plugin) (ldsLightTokenGet)
F:\github_version\ikea_light_project\lighting_cbb\lib/liblighting_cbb.a(lds_light_effect.o)
                              lds_trf.o (symbol from plugin) (ldsGetLightEffectState)
F:\github_version\ikea_light_project\lighting_cbb\lib/liblighting_cbb.a(lds_log.o)
                              ./apps/sampleLight_concurrent/sampleLight.o (symbol from plugin) (LDS_LOG)
F:\github_version\ikea_light_project\lighting_cbb\lib/liblighting_cbb.a(lds_dim_algorithm.o)
                              lds_light_control.o (symbol from plugin) (ldsGetDimalgorithmExpteble)
F:\github_version\ikea_light_project\lighting_cbb\lib/liblighting_cbb.a(lds_light_cct_algorithm.o)
                              ./apps/sampleLight_concurrent/sampleLight.o (symbol from plugin) (ldsLightingCCTAlgorithmInit)
F:\github_version\ikea_light_project\lighting_cbb\lib/liblighting_cbb.a(lds_device_i2c.o)
                              lds_driver_common.o (symbol from plugin) (ldsDriverI2cInit)
F:\github_version\ikea_light_project\lighting_cbb\lib/liblighting_cbb.a(lds_device_pwm.o)
                              lds_driver_common.o (symbol from plugin) (ldsDriverPwmInit)
F:\github_version\ikea_light_project\lighting_cbb\lib/liblighting_cbb.a(lds_driver_minitrim.o)
                              lds_trf.o (symbol from plugin) (ldsMinitrimIsProcessing)
F:\github_version\ikea_light_project\lighting_cbb\lib/liblighting_cbb.a(lds_flash_remember.o)
                              lds_light_ftm_test.o (symbol from plugin) (LdsFlashMemoryRead)
F:\github_version\ikea_light_project\lighting_cbb\lib/liblighting_cbb.a(lds_i2c_kp18056.o)
                              lds_device_i2c.o (symbol from plugin) (ldsI2cKp18056ChipParamSet)
F:\github_version\ikea_light_project\lighting_cbb\lib/liblighting_cbb.a(lds_i2c_kp18057.o)
                              lds_device_i2c.o (symbol from plugin) (ldsI2cKp18057ChipParamSet)
../../../platform/lib/libdrivers_b92.a(adc.o)
                              ./proj/drivers/drv_adc.o (symbol from plugin) (adc_set_dma_config)
../../../platform/lib/libdrivers_b92.a(aes.o)
                              ./proj/drivers/drv_security.o (symbol from plugin) (aes_encrypt)
../../../platform/lib/libdrivers_b92.a(analog.o)
                              ./proj/drivers/drv_adc.o (symbol from plugin) (analog_read_reg8)
../../../platform/lib/libdrivers_b92.a(audio.o)
                              adc.o (symbol from plugin) (audio_data_fifo_input_path_sel)
../../../platform/lib/libdrivers_b92.a(clock.o)
                              ./proj/drivers/drv_hw.o (symbol from plugin) (sys_clk)
../../../platform/lib/libdrivers_b92.a(flash.o)
                              ./proj/drivers/drv_flash.o (symbol from plugin) (flash_erase_sector)
../../../platform/lib/libdrivers_b92.a(gpio.o)
                              ./platform/chip_b92/i2c.o (symbol from plugin) (gpio_set_mux_function)
../../../platform/lib/libdrivers_b92.a(pwm.o)
                              lds_device_pwm.o (symbol from plugin) (pwm_set_pin)
../../../platform/lib/libdrivers_b92.a(spi.o)
                              ./proj/drivers/drv_spi.o (symbol from plugin) (gspi_set_pin)
../../../platform/lib/libdrivers_b92.a(stimer.o)
                              ./stack/zigbee/mac/mac_phy.o (symbol from plugin) (delay_us)
../../../platform/lib/libdrivers_b92.a(timer.o)
                              ./proj/drivers/drv_timer.o (symbol from plugin) (timer_start)
../../../platform/lib/libdrivers_b92.a(uart.o)
                              ./proj/drivers/drv_uart.o (symbol from plugin) (uart_init)
../../../platform/lib/libdrivers_b92.a(watchdog.o)
                              ./proj/drivers/drv_hw.o (symbol from plugin) (wd_32k_stop)
../../../platform/lib/libdrivers_b92.a(flash_base.o)
                              flash.o (symbol from plugin) (flash_mspi_read_ram)
../../../platform/lib/libdrivers_b92.a(plic.o)
                              flash.o (symbol from plugin) (plic_enter_critical_sec)
../../../platform/lib/libdrivers_b92.a(pm.o)
                              ./platform/boot/b92/cstartup_b92.o (pm_retention_register_recover)
../../../platform/lib/libdrivers_b92.a(rf.o)
                              ./stack/zigbee/mac/mac_phy.o (symbol from plugin) (rf_tx_pkt)
../../../platform/lib/libdrivers_b92.a(sys.o)
                              ./platform/chip_b92/error_handler/error_handler.o (symbol from plugin) (sys_reboot_ram)
../../../platform/lib/libdrivers_b92.a(trng.o)
                              ./proj/drivers/drv_hw.o (symbol from plugin) (trng_init)
../../../platform/lib/libdrivers_b92.a(eccp_curve.o)
                              hw_ecc.o (symbol from plugin) (secp256r1)
../../../platform/lib/libdrivers_b92.a(pke.o)
                              hw_ecc.o (symbol from plugin) (eccp_pointMul)
../../../platform/lib/libdrivers_b92.a(pke_utility.o)
                              pke.o (symbol from plugin) (uint32_copy)
../../../platform/lib/libdrivers_b92.a(software_pa.o)
                              ll_system.o (symbol from plugin) (blc_rf_pa_cb)
../../../platform/lib/libdrivers_b92.a(ext_aes.o)
                              ll.o (symbol from plugin) (aes_encryption_le)
../../../platform/lib/libdrivers_b92.a(ext_lib.o)
                              ./apps/sampleLight_concurrent/sampleLightBLE.o (symbol from plugin) (efuse_get_mac_address)
../../../platform/lib/libdrivers_b92.a(ext_pm.o)
                              ota_server.o (symbol from plugin) (ota_program_offset)
../../../platform/lib/libdrivers_b92.a(ext_pm_32k_rc.o)
                              ext_pm.o (symbol from plugin) (cpu_sleep_wakeup_32k_rc)
../../../platform/lib/libdrivers_b92.a(ext_pm_32k_xtal.o)
                              ext_pm.o (symbol from plugin) (cpu_sleep_wakeup_32k_xtal)
../../../platform/lib/libdrivers_b92.a(ext_rf.o)
                              acl_conn.o (symbol from plugin) (ble_rf_set_rx_dma)
../../../platform/lib/libdrivers_b92.a(core.o)
                              rf.o (symbol from plugin) (core_cclk_delay_tick)
../../../platform/lib/libdrivers_b92.a(mspi.o)
                              flash_base.o (symbol from plugin) (mspi_write)
../../../stack/zigbee/lib/riscv_gcc10/libzb_router.a(zb_buffer.o)
                              ./stack/zigbee/mac/mac_phy.o (symbol from plugin) (tl_getRxBuf)
../../../stack/zigbee/lib/riscv_gcc10/libzb_router.a(zb_initialize.o)
                              ./stack/zigbee/zdo/zdp.o (symbol from plugin) (g_zbInfo)
../../../stack/zigbee/lib/riscv_gcc10/libzb_router.a(zb_task_queue.o)
                              zb_initialize.o (symbol from plugin) (zb_sched_init)
../../../stack/zigbee/lib/riscv_gcc10/libzb_router.a(mac.o)
                              ./stack/zigbee/zcl/zll_commissioning/zcl_zllTouchLinkJoinOrStart.o (symbol from plugin) (g_zbMacCtx)
../../../stack/zigbee/lib/riscv_gcc10/libzb_router.a(mac_associate.o)
                              mac.o (symbol from plugin) (tl_zbMacAssociateRequestStatusCheck)
../../../stack/zigbee/lib/riscv_gcc10/libzb_router.a(mac_common.o)
                              ./stack/zigbee/mac/mac_phy.o (symbol from plugin) (tl_zbMacHdrSize)
../../../stack/zigbee/lib/riscv_gcc10/libzb_router.a(mac_cr_coordinator.o)
                              mac.o (symbol from plugin) (tl_zbMacOrphanResponseStatusCheck)
../../../stack/zigbee/lib/riscv_gcc10/libzb_router.a(mac_data.o)
                              mac.o (symbol from plugin) (tl_zbMacMcpsDataRequestSendConfirm)
../../../stack/zigbee/lib/riscv_gcc10/libzb_router.a(mac_indirect_data.o)
                              mac.o (symbol from plugin) (tl_zbMacDataRequestStatusCheck)
../../../stack/zigbee/lib/riscv_gcc10/libzb_router.a(mac_mlme.o)
                              mac.o (symbol from plugin) (tl_zbPhyMlmeIndicate)
../../../stack/zigbee/lib/riscv_gcc10/libzb_router.a(mac_scan.o)
                              mac.o (symbol from plugin) (tl_zbMacActiveScanListAdd)
../../../stack/zigbee/lib/riscv_gcc10/libzb_router.a(mac_trx.o)
                              mac.o (symbol from plugin) (zb_macTimerEventProc)
../../../stack/zigbee/lib/riscv_gcc10/libzb_router.a(nwk.o)
                              ./stack/zigbee/zcl/zll_commissioning/zcl_toucklink_security.o (symbol from plugin) (g_zbNwkCtx)
../../../stack/zigbee/lib/riscv_gcc10/libzb_router.a(nwk_addr_conflict.o)
                              ./stack/zigbee/gp/gp.o (symbol from plugin) (tl_zbNwkAddrConflictStatusSend)
../../../stack/zigbee/lib/riscv_gcc10/libzb_router.a(nwk_addr_map.o)
                              nwk.o (symbol from plugin) (tl_zbNwkAddrMapInit)
../../../stack/zigbee/lib/riscv_gcc10/libzb_router.a(nwk_address_assign.o)
                              ./stack/zigbee/zcl/zll_commissioning/zcl_zllTouchLinkJoinOrStart.o (symbol from plugin) (tl_zbNwkStochasticAddrCal)
../../../stack/zigbee/lib/riscv_gcc10/libzb_router.a(nwk_brc.o)
                              nwk.o (symbol from plugin) (nwkBrcTransTabEntryClear)
../../../stack/zigbee/lib/riscv_gcc10/libzb_router.a(nwk_data.o)
                              nwk.o (symbol from plugin) (tl_zbMacMcpsDataConfirmHandler)
../../../stack/zigbee/lib/riscv_gcc10/libzb_router.a(nwk_discovery.o)
                              nwk.o (symbol from plugin) (tl_zbNwkNlmeNwkDiscRequestHandler)
../../../stack/zigbee/lib/riscv_gcc10/libzb_router.a(nwk_endDev_timeout.o)
                              nwk_data.o (symbol from plugin) (nwkEndDevTimeoutReqCmdHandler)
../../../stack/zigbee/lib/riscv_gcc10/libzb_router.a(nwk_formation.o)
                              nwk.o (symbol from plugin) (tl_zbNwkNlmeNetworkFormationRequestHandler)
../../../stack/zigbee/lib/riscv_gcc10/libzb_router.a(nwk_join.o)
                              nwk_addr_conflict.o (symbol from plugin) (tl_zbNwkSendRejoinRespCmd)
../../../stack/zigbee/lib/riscv_gcc10/libzb_router.a(nwk_leave.o)
                              nwk.o (symbol from plugin) (tl_zbNwkNlmeLeaveRequestHandler)
../../../stack/zigbee/lib/riscv_gcc10/libzb_router.a(nwk_neighbor.o)
                              nwk.o (symbol from plugin) (tl_zbNeighborTableNumGet)
../../../stack/zigbee/lib/riscv_gcc10/libzb_router.a(nwk_nlme.o)
                              nwk.o (symbol from plugin) (tl_zbNwkNlmeStartRouterRequestHandler)
../../../stack/zigbee/lib/riscv_gcc10/libzb_router.a(nwk_panid_conflict.o)
                              nwk.o (symbol from plugin) (nwkReportCmdSend)
../../../stack/zigbee/lib/riscv_gcc10/libzb_router.a(nwk_pend.o)
                              nwk_brc.o (symbol from plugin) (nwkTxDataPendTabEntryClear)
../../../stack/zigbee/lib/riscv_gcc10/libzb_router.a(nwk_permit_joining.o)
                              nwk.o (symbol from plugin) (tl_zbNwkNlmePermitJoiningRequestHandler)
../../../stack/zigbee/lib/riscv_gcc10/libzb_router.a(nwk_route_disc.o)
                              nwk.o (symbol from plugin) (nwkRouteDiscTabInit)
../../../stack/zigbee/lib/riscv_gcc10/libzb_router.a(nwk_routing.o)
                              nwk.o (symbol from plugin) (nwkRoutingTabEntryClear)
../../../stack/zigbee/lib/riscv_gcc10/libzb_router.a(ss_apsSecurityME.o)
                              ./stack/zigbee/zcl/zll_commissioning/zcl_toucklink_security.o (symbol from plugin) (ss_ib)
../../../stack/zigbee/lib/riscv_gcc10/libzb_router.a(ss_nwkEnDecrypt.o)
                              nwk_data.o (symbol from plugin) (ss_nwkSecureFrame)
../../../stack/zigbee/lib/riscv_gcc10/libzb_router.a(ss_tlCCM.o)
                              ss_apsSecurityME.o (symbol from plugin) (ss_keyHash)
../../../stack/zigbee/lib/riscv_gcc10/libzb_router.a(ss_zdoSecurityME.o)
                              ss_apsSecurityME.o (symbol from plugin) (ss_zdoInsecureRejoin)
../../../stack/zigbee/lib/riscv_gcc10/libzb_router.a(aps.o)
                              zb_initialize.o (symbol from plugin) (aps_init)
../../../stack/zigbee/lib/riscv_gcc10/libzb_router.a(aps_data.o)
                              ./stack/zigbee/gp/gp_proxy.o (symbol from plugin) (aps_duplicate_check)
../../../stack/zigbee/lib/riscv_gcc10/libzb_router.a(aps_me.o)
                              nwk_neighbor.o (symbol from plugin) (aps_bindingTblExist)
../../../stack/zigbee/lib/riscv_gcc10/libzb_router.a(zdo.o)
                              nwk_panid_conflict.o (symbol from plugin) (zdoAppIndCbLst)
../../../stack/zigbee/lib/riscv_gcc10/libzb_router.a(zdo_nwk_manager.o)
                              ss_zdoSecurityME.o (symbol from plugin) (g_zdo_nwk_manager)
../../../stack/zigbee/lib/riscv_gcc10/libzb_router.a(zdp_services.o)
                              ./stack/zigbee/zdo/zdp.o (symbol from plugin) (zdp_cb_process)
../../../stack/zigbee/lib/riscv_gcc10/libzb_router.a(zb_af_data.o)
                              ./stack/zigbee/zcl/zcl.o (symbol from plugin) (af_dataSend)
../../../stack/zigbee/lib/riscv_gcc10/libzb_router.a(cGP_stub.o)
                              nwk_data.o (symbol from plugin) (cGp_mcpsDataInd)
../../../stack/zigbee/lib/riscv_gcc10/libzb_router.a(dGP_stub.o)
                              ./stack/zigbee/gp/gp.o (symbol from plugin) (gpSecRsp)
../../../stack/zigbee/lib/riscv_gcc10/libzb_router.a(gp_base.o)
                              dGP_stub.o (symbol from plugin) (g_gpBaseCtx)
../../../stack/zigbee/lib/riscv_gcc10/libzb_router.a(gp_sec.o)
                              dGP_stub.o (symbol from plugin) (gpCcmStar)
../../../stack/zigbee/lib/riscv_gcc10/libzb_router.a(bdb_base.o)
                              ./stack/zigbee/bdb/bdb.o (symbol from plugin) (bdb_linkKeyCfg)
../../../stack/zigbee/lib/riscv_gcc10/libzb_router.a(zb_api.o)
                              ./apps/common/factory_reset.o (symbol from plugin) (zb_factoryReset)
../../../stack/zigbee/lib/riscv_gcc10/libzb_router.a(second_clock.o)
                              nwk_formation.o (symbol from plugin) (g_secondCnt)
../../../stack/zigbee/lib/riscv_gcc10/libzb_router.a(ss_apsEnDecrypt.o)
                              aps_data.o (symbol from plugin) (ss_apsEnAuxHdrFill)
C:\TelinkIoTStudio\RDS\V5.1.2\toolchains\nds32le-elf-mculib-v5f\riscv32-elf\lib/libm.a(lib_a-exp.o)
                              lds_dim_algorithm.o (symbol from plugin) (exp)
C:\TelinkIoTStudio\RDS\V5.1.2\toolchains\nds32le-elf-mculib-v5f\riscv32-elf\lib/libm.a(lib_a-exp_data.o)
                              C:\TelinkIoTStudio\RDS\V5.1.2\toolchains\nds32le-elf-mculib-v5f\riscv32-elf\lib/libm.a(lib_a-exp.o) (__exp_data)
C:\TelinkIoTStudio\RDS\V5.1.2\toolchains\nds32le-elf-mculib-v5f\riscv32-elf\lib/libm.a(lib_a-log.o)
                              lds_dim_algorithm.o (symbol from plugin) (log)
C:\TelinkIoTStudio\RDS\V5.1.2\toolchains\nds32le-elf-mculib-v5f\riscv32-elf\lib/libm.a(lib_a-log_data.o)
                              C:\TelinkIoTStudio\RDS\V5.1.2\toolchains\nds32le-elf-mculib-v5f\riscv32-elf\lib/libm.a(lib_a-log.o) (__log_data)
C:\TelinkIoTStudio\RDS\V5.1.2\toolchains\nds32le-elf-mculib-v5f\riscv32-elf\lib/libm.a(lib_a-math_err.o)
                              C:\TelinkIoTStudio\RDS\V5.1.2\toolchains\nds32le-elf-mculib-v5f\riscv32-elf\lib/libm.a(lib_a-exp.o) (__math_uflow)
C:\TelinkIoTStudio\RDS\V5.1.2\toolchains\nds32le-elf-mculib-v5f\riscv32-elf\lib/libm.a(lib_a-s_fabs.o)
                              lds_driver_minitrim.o (symbol from plugin) (fabs)
C:\TelinkIoTStudio\RDS\V5.1.2\toolchains\nds32le-elf-mculib-v5f\riscv32-elf\lib/libm.a(lib_a-sf_ceil.o)
                              lds_i2c_kp18057.o (symbol from plugin) (ceilf)
/cygdrive/c/TelinkIoTStudio/RDS/V5.1.2/toolchains/nds32le-elf-mculib-v5f/bin/../lib/gcc/riscv32-elf/10.3.0/mext-dsp/libgcc.a(_addsub_df.o)
                              C:\TelinkIoTStudio\RDS\V5.1.2\toolchains\nds32le-elf-mculib-v5f\riscv32-elf\lib/libm.a(lib_a-exp.o) (__subdf3)
/cygdrive/c/TelinkIoTStudio/RDS/V5.1.2/toolchains/nds32le-elf-mculib-v5f/bin/../lib/gcc/riscv32-elf/10.3.0/mext-dsp/libgcc.a(_mul_df.o)
                              C:\TelinkIoTStudio\RDS\V5.1.2\toolchains\nds32le-elf-mculib-v5f\riscv32-elf\lib/libm.a(lib_a-exp.o) (__muldf3)
/cygdrive/c/TelinkIoTStudio/RDS/V5.1.2/toolchains/nds32le-elf-mculib-v5f/bin/../lib/gcc/riscv32-elf/10.3.0/mext-dsp/libgcc.a(_div_df.o)
                              C:\TelinkIoTStudio\RDS\V5.1.2\toolchains\nds32le-elf-mculib-v5f\riscv32-elf\lib/libm.a(lib_a-math_err.o) (__divdf3)
/cygdrive/c/TelinkIoTStudio/RDS/V5.1.2/toolchains/nds32le-elf-mculib-v5f/bin/../lib/gcc/riscv32-elf/10.3.0/mext-dsp/libgcc.a(_si_to_df.o)
                              C:\TelinkIoTStudio\RDS\V5.1.2\toolchains\nds32le-elf-mculib-v5f\riscv32-elf\lib/libm.a(lib_a-log.o) (__floatsidf)
/cygdrive/c/TelinkIoTStudio/RDS/V5.1.2/toolchains/nds32le-elf-mculib-v5f/bin/../lib/gcc/riscv32-elf/10.3.0/mext-dsp/libgcc.a(_compare_df.o)
                              C:\TelinkIoTStudio\RDS\V5.1.2\toolchains\nds32le-elf-mculib-v5f\riscv32-elf\lib/libm.a(lib_a-exp.o) (__eqdf2)
/cygdrive/c/TelinkIoTStudio/RDS/V5.1.2/toolchains/nds32le-elf-mculib-v5f/bin/../lib/gcc/riscv32-elf/10.3.0/mext-dsp/libgcc.a(_unord_df.o)
                              C:\TelinkIoTStudio\RDS\V5.1.2\toolchains\nds32le-elf-mculib-v5f\riscv32-elf\lib/libm.a(lib_a-math_err.o) (__unorddf2)
/cygdrive/c/TelinkIoTStudio/RDS/V5.1.2/toolchains/nds32le-elf-mculib-v5f/bin/../lib/gcc/riscv32-elf/10.3.0/mext-dsp/libgcc.a(_clzsi2.o)
                              /cygdrive/c/TelinkIoTStudio/RDS/V5.1.2/toolchains/nds32le-elf-mculib-v5f/bin/../lib/gcc/riscv32-elf/10.3.0/mext-dsp/libgcc.a(_si_to_df.o) (__clzsi2)
/cygdrive/c/TelinkIoTStudio/RDS/V5.1.2/toolchains/nds32le-elf-mculib-v5f/bin/../lib/gcc/riscv32-elf/10.3.0/mext-dsp/libgcc.a(save-restore.o)
                              C:\TelinkIoTStudio\RDS\V5.1.2\toolchains\nds32le-elf-mculib-v5f\riscv32-elf\lib/libm.a(lib_a-math_err.o) (__riscv_save_6)
/cygdrive/c/TelinkIoTStudio/RDS/V5.1.2/toolchains/nds32le-elf-mculib-v5f/bin/../lib/gcc/riscv32-elf/10.3.0/mext-dsp/libgcc.a(_clz.o)
                              /cygdrive/c/TelinkIoTStudio/RDS/V5.1.2/toolchains/nds32le-elf-mculib-v5f/bin/../lib/gcc/riscv32-elf/10.3.0/mext-dsp/libgcc.a(_clzsi2.o) (__clz_tab)
C:\TelinkIoTStudio\RDS\V5.1.2\toolchains\nds32le-elf-mculib-v5f\riscv32-elf\lib/libc.a(lib_a-errno.o)
                              C:\TelinkIoTStudio\RDS\V5.1.2\toolchains\nds32le-elf-mculib-v5f\riscv32-elf\lib/libm.a(lib_a-math_err.o) (__mculib_REENT_errno)
C:\TelinkIoTStudio\RDS\V5.1.2\toolchains\nds32le-elf-mculib-v5f\riscv32-elf\lib/libc.a(lib_a-printf.o)
                              ./apps/sampleLight_concurrent/sampleLight.o (symbol from plugin) (printf)
C:\TelinkIoTStudio\RDS\V5.1.2\toolchains\nds32le-elf-mculib-v5f\riscv32-elf\lib/libc.a(lib_a-snprintf.o)
                              ./proj/common/utility.o (symbol from plugin) (snprintf)
C:\TelinkIoTStudio\RDS\V5.1.2\toolchains\nds32le-elf-mculib-v5f\riscv32-elf\lib/libc.a(lib_a-vprintf.o)
                              C:\TelinkIoTStudio\RDS\V5.1.2\toolchains\nds32le-elf-mculib-v5f\riscv32-elf\lib/libc.a(lib_a-printf.o) (vprintf)
C:\TelinkIoTStudio\RDS\V5.1.2\toolchains\nds32le-elf-mculib-v5f\riscv32-elf\lib/libc.a(lib_a-vsnprintf.o)
                              C:\TelinkIoTStudio\RDS\V5.1.2\toolchains\nds32le-elf-mculib-v5f\riscv32-elf\lib/libc.a(lib_a-snprintf.o) (vsnprintf)
C:\TelinkIoTStudio\RDS\V5.1.2\toolchains\nds32le-elf-mculib-v5f\riscv32-elf\lib/libc.a(lib_a-printf_data.o)
                              C:\TelinkIoTStudio\RDS\V5.1.2\toolchains\nds32le-elf-mculib-v5f\riscv32-elf\lib/libc.a(lib_a-vprintf.o) (__printf_count)
C:\TelinkIoTStudio\RDS\V5.1.2\toolchains\nds32le-elf-mculib-v5f\riscv32-elf\lib/libc.a(lib_a-printf_impl.o)
                              C:\TelinkIoTStudio\RDS\V5.1.2\toolchains\nds32le-elf-mculib-v5f\riscv32-elf\lib/libc.a(lib_a-vprintf.o) (__printf_impl)
C:\TelinkIoTStudio\RDS\V5.1.2\toolchains\nds32le-elf-mculib-v5f\riscv32-elf\lib/libc.a(lib_a-printf_impl_float.o)
                              C:\TelinkIoTStudio\RDS\V5.1.2\toolchains\nds32le-elf-mculib-v5f\riscv32-elf\lib/libc.a(lib_a-printf_impl.o) (__int_to_poly)
C:\TelinkIoTStudio\RDS\V5.1.2\toolchains\nds32le-elf-mculib-v5f\riscv32-elf\lib/libc.a(lib_a-strnlen.o)
                              C:\TelinkIoTStudio\RDS\V5.1.2\toolchains\nds32le-elf-mculib-v5f\riscv32-elf\lib/libc.a(lib_a-printf_impl.o) (strnlen)
/cygdrive/c/TelinkIoTStudio/RDS/V5.1.2/toolchains/nds32le-elf-mculib-v5f/bin/../lib/gcc/riscv32-elf/10.3.0/mext-dsp/libgcc.a(_sf_to_df.o)
                              /cygdrive/c/Users/huangli/AppData/Local/Temp/concurrent_sampleLight_b92.elf.60zuQo.ltrans3.ltrans.o (__extendsfdf2)
/cygdrive/c/TelinkIoTStudio/RDS/V5.1.2/toolchains/nds32le-elf-mculib-v5f/bin/../lib/gcc/riscv32-elf/10.3.0/mext-dsp/libgcc.a(_df_to_sf.o)
                              /cygdrive/c/Users/huangli/AppData/Local/Temp/concurrent_sampleLight_b92.elf.60zuQo.ltrans1.ltrans.o (__truncdfsf2)
/cygdrive/c/TelinkIoTStudio/RDS/V5.1.2/toolchains/nds32le-elf-mculib-v5f/bin/../lib/gcc/riscv32-elf/10.3.0/mext-dsp/libgcc.a(_fixunsdfsi.o)
                              /cygdrive/c/Users/huangli/AppData/Local/Temp/concurrent_sampleLight_b92.elf.60zuQo.ltrans3.ltrans.o (__fixunsdfsi)

Discarded input sections

 .text          0x0000000000000000        0x0 /cygdrive/c/Users/huangli/AppData/Local/Temp/concurrent_sampleLight_b92.elf.60zuQo.ltrans0.ltrans.o
 .data          0x0000000000000000        0x0 /cygdrive/c/Users/huangli/AppData/Local/Temp/concurrent_sampleLight_b92.elf.60zuQo.ltrans0.ltrans.o
 .bss           0x0000000000000000        0x0 /cygdrive/c/Users/huangli/AppData/Local/Temp/concurrent_sampleLight_b92.elf.60zuQo.ltrans0.ltrans.o
 .text.resetDeviceTouchLinkDone
                0x0000000000000000       0x1c /cygdrive/c/Users/huangli/AppData/Local/Temp/concurrent_sampleLight_b92.elf.60zuQo.ltrans0.ltrans.o
 .sbss.txPower_index
                0x0000000000000000        0x1 /cygdrive/c/Users/huangli/AppData/Local/Temp/concurrent_sampleLight_b92.elf.60zuQo.ltrans0.ltrans.o
 .srodata.APS_GROUP_TABLE_SIZE
                0x0000000000000000        0x1 /cygdrive/c/Users/huangli/AppData/Local/Temp/concurrent_sampleLight_b92.elf.60zuQo.ltrans0.ltrans.o
 .srodata.reset2FactoryFlag
                0x0000000000000000        0x1 /cygdrive/c/Users/huangli/AppData/Local/Temp/concurrent_sampleLight_b92.elf.60zuQo.ltrans0.ltrans.o
 .text          0x0000000000000000        0x0 /cygdrive/c/Users/huangli/AppData/Local/Temp/concurrent_sampleLight_b92.elf.60zuQo.ltrans1.ltrans.o
 .bss           0x0000000000000000        0x0 /cygdrive/c/Users/huangli/AppData/Local/Temp/concurrent_sampleLight_b92.elf.60zuQo.ltrans1.ltrans.o
 .srodata.NWK_COST_THRESHOLD_ONEHOP
                0x0000000000000000        0x1 /cygdrive/c/Users/huangli/AppData/Local/Temp/concurrent_sampleLight_b92.elf.60zuQo.ltrans1.ltrans.o
 .srodata.ll_ext_scan_mlp_task_cb
                0x0000000000000000        0x4 /cygdrive/c/Users/huangli/AppData/Local/Temp/concurrent_sampleLight_b92.elf.60zuQo.ltrans1.ltrans.o
 .srodata.MAC_TX_QUEUE_SIZE
                0x0000000000000000        0x1 /cygdrive/c/Users/huangli/AppData/Local/Temp/concurrent_sampleLight_b92.elf.60zuQo.ltrans1.ltrans.o
 .srodata.GP_CB_CLUSTER_NUM
                0x0000000000000000        0x1 /cygdrive/c/Users/huangli/AppData/Local/Temp/concurrent_sampleLight_b92.elf.60zuQo.ltrans1.ltrans.o
 .srodata.stkLog_mask
                0x0000000000000000        0x4 /cygdrive/c/Users/huangli/AppData/Local/Temp/concurrent_sampleLight_b92.elf.60zuQo.ltrans1.ltrans.o
 .srodata.flash_read_page
                0x0000000000000000        0x4 /cygdrive/c/Users/huangli/AppData/Local/Temp/concurrent_sampleLight_b92.elf.60zuQo.ltrans1.ltrans.o
 .srodata.flash_write_page
                0x0000000000000000        0x4 /cygdrive/c/Users/huangli/AppData/Local/Temp/concurrent_sampleLight_b92.elf.60zuQo.ltrans1.ltrans.o
 .srodata.ev_buf_v
                0x0000000000000000        0x4 /cygdrive/c/Users/huangli/AppData/Local/Temp/concurrent_sampleLight_b92.elf.60zuQo.ltrans1.ltrans.o
 .srodata.ZB_BUF_POOL_SIZE
                0x0000000000000000        0x1 /cygdrive/c/Users/huangli/AppData/Local/Temp/concurrent_sampleLight_b92.elf.60zuQo.ltrans1.ltrans.o
 .text          0x0000000000000000        0x0 /cygdrive/c/Users/huangli/AppData/Local/Temp/concurrent_sampleLight_b92.elf.60zuQo.ltrans2.ltrans.o
 .bss           0x0000000000000000        0x0 /cygdrive/c/Users/huangli/AppData/Local/Temp/concurrent_sampleLight_b92.elf.60zuQo.ltrans2.ltrans.o
 .text.tlk_printf
                0x0000000000000000       0x18 /cygdrive/c/Users/huangli/AppData/Local/Temp/concurrent_sampleLight_b92.elf.60zuQo.ltrans2.ltrans.o
 .text.blt_set_scan_default
                0x0000000000000000       0x40 /cygdrive/c/Users/huangli/AppData/Local/Temp/concurrent_sampleLight_b92.elf.60zuQo.ltrans2.ltrans.o
 .text.blt_reset_leg_scan
                0x0000000000000000       0x14 /cygdrive/c/Users/huangli/AppData/Local/Temp/concurrent_sampleLight_b92.elf.60zuQo.ltrans2.ltrans.o
 .text.blt_leg_scan_mainloop_task
                0x0000000000000000      0x2e0 /cygdrive/c/Users/huangli/AppData/Local/Temp/concurrent_sampleLight_b92.elf.60zuQo.ltrans2.ltrans.o
 .srodata.smp_setLtkVerification
                0x0000000000000000        0x1 /cygdrive/c/Users/huangli/AppData/Local/Temp/concurrent_sampleLight_b92.elf.60zuQo.ltrans2.ltrans.o
 .rodata.custom_darwin_fmn
                0x0000000000000000        0xc /cygdrive/c/Users/huangli/AppData/Local/Temp/concurrent_sampleLight_b92.elf.60zuQo.ltrans2.ltrans.o
 .srodata.usr_irq_handler_cb
                0x0000000000000000        0x4 /cygdrive/c/Users/huangli/AppData/Local/Temp/concurrent_sampleLight_b92.elf.60zuQo.ltrans2.ltrans.o
 .sbss.rf_fsm_tx_trigger_flag
                0x0000000000000000        0x1 /cygdrive/c/Users/huangli/AppData/Local/Temp/concurrent_sampleLight_b92.elf.60zuQo.ltrans2.ltrans.o
 .srodata.ll_acl_chnclass_irq_task_cb
                0x0000000000000000        0x4 /cygdrive/c/Users/huangli/AppData/Local/Temp/concurrent_sampleLight_b92.elf.60zuQo.ltrans2.ltrans.o
 .srodata.ll_acl_chnclass_mlp_task_cb
                0x0000000000000000        0x4 /cygdrive/c/Users/huangli/AppData/Local/Temp/concurrent_sampleLight_b92.elf.60zuQo.ltrans2.ltrans.o
 .srodata.ll_ext_adv_irq_task_cb
                0x0000000000000000        0x4 /cygdrive/c/Users/huangli/AppData/Local/Temp/concurrent_sampleLight_b92.elf.60zuQo.ltrans2.ltrans.o
 .srodata.ll_acl_master_irq_task_cb
                0x0000000000000000        0x4 /cygdrive/c/Users/huangli/AppData/Local/Temp/concurrent_sampleLight_b92.elf.60zuQo.ltrans2.ltrans.o
 .srodata.ll_phy_switch_cb
                0x0000000000000000        0x4 /cygdrive/c/Users/huangli/AppData/Local/Temp/concurrent_sampleLight_b92.elf.60zuQo.ltrans2.ltrans.o
 .bss.blt_scan_device
                0x0000000000000000       0x80 /cygdrive/c/Users/huangli/AppData/Local/Temp/concurrent_sampleLight_b92.elf.60zuQo.ltrans2.ltrans.o
 .data          0x0000000000000000        0x0 /cygdrive/c/Users/huangli/AppData/Local/Temp/concurrent_sampleLight_b92.elf.60zuQo.ltrans3.ltrans.o
 .bss           0x0000000000000000        0x0 /cygdrive/c/Users/huangli/AppData/Local/Temp/concurrent_sampleLight_b92.elf.60zuQo.ltrans3.ltrans.o
 .srodata.macAppIndCb
                0x0000000000000000        0x4 /cygdrive/c/Users/huangli/AppData/Local/Temp/concurrent_sampleLight_b92.elf.60zuQo.ltrans3.ltrans.o
 .srodata.NWK_NEIGHBORTBL_ADD_LQITHRESHOLD
                0x0000000000000000        0x1 /cygdrive/c/Users/huangli/AppData/Local/Temp/concurrent_sampleLight_b92.elf.60zuQo.ltrans3.ltrans.o
 .srodata.macPendingQueue.lto_priv.0
                0x0000000000000000        0x4 /cygdrive/c/Users/huangli/AppData/Local/Temp/concurrent_sampleLight_b92.elf.60zuQo.ltrans3.ltrans.o
 .srodata.real_encryption_busy_enable
                0x0000000000000000        0x1 /cygdrive/c/Users/huangli/AppData/Local/Temp/concurrent_sampleLight_b92.elf.60zuQo.ltrans3.ltrans.o
 .text          0x0000000000000000        0x0 /cygdrive/c/Users/huangli/AppData/Local/Temp/concurrent_sampleLight_b92.elf.60zuQo.ltrans4.ltrans.o
 .data          0x0000000000000000        0x0 /cygdrive/c/Users/huangli/AppData/Local/Temp/concurrent_sampleLight_b92.elf.60zuQo.ltrans4.ltrans.o
 .bss           0x0000000000000000        0x0 /cygdrive/c/Users/huangli/AppData/Local/Temp/concurrent_sampleLight_b92.elf.60zuQo.ltrans4.ltrans.o
 .srodata.APS_TX_CACHE_TABLE_SIZE
                0x0000000000000000        0x1 /cygdrive/c/Users/huangli/AppData/Local/Temp/concurrent_sampleLight_b92.elf.60zuQo.ltrans4.ltrans.o
 .srodata.NWKC_RREQ_RETRIES
                0x0000000000000000        0x1 /cygdrive/c/Users/huangli/AppData/Local/Temp/concurrent_sampleLight_b92.elf.60zuQo.ltrans4.ltrans.o
 .srodata.NWK_NEIGHBOR_SEND_OUTGOING_THRESHOLD
                0x0000000000000000        0x1 /cygdrive/c/Users/huangli/AppData/Local/Temp/concurrent_sampleLight_b92.elf.60zuQo.ltrans4.ltrans.o
 .srodata.TL_ZB_NEIGHBOR_TABLE_SIZE
                0x0000000000000000        0x1 /cygdrive/c/Users/huangli/AppData/Local/Temp/concurrent_sampleLight_b92.elf.60zuQo.ltrans4.ltrans.o
 .srodata.TL_ZB_NWK_ADDR_MAP_SIZE
                0x0000000000000000        0x2 /cygdrive/c/Users/huangli/AppData/Local/Temp/concurrent_sampleLight_b92.elf.60zuQo.ltrans4.ltrans.o
 .srodata.ROUTING_TABLE_SIZE
                0x0000000000000000        0x2 /cygdrive/c/Users/huangli/AppData/Local/Temp/concurrent_sampleLight_b92.elf.60zuQo.ltrans4.ltrans.o
 .text          0x0000000000000000        0x0 /cygdrive/c/Users/huangli/AppData/Local/Temp/concurrent_sampleLight_b92.elf.60zuQo.ltrans5.ltrans.o
 .data          0x0000000000000000        0x0 /cygdrive/c/Users/huangli/AppData/Local/Temp/concurrent_sampleLight_b92.elf.60zuQo.ltrans5.ltrans.o
 .bss           0x0000000000000000        0x0 /cygdrive/c/Users/huangli/AppData/Local/Temp/concurrent_sampleLight_b92.elf.60zuQo.ltrans5.ltrans.o
 .text          0x0000000000000000        0x0 /cygdrive/c/Users/huangli/AppData/Local/Temp/concurrent_sampleLight_b92.elf.60zuQo.ltrans6.ltrans.o
 .data          0x0000000000000000        0x0 /cygdrive/c/Users/huangli/AppData/Local/Temp/concurrent_sampleLight_b92.elf.60zuQo.ltrans6.ltrans.o
 .bss           0x0000000000000000        0x0 /cygdrive/c/Users/huangli/AppData/Local/Temp/concurrent_sampleLight_b92.elf.60zuQo.ltrans6.ltrans.o
 .text          0x0000000000000000        0x0 /cygdrive/c/Users/huangli/AppData/Local/Temp/concurrent_sampleLight_b92.elf.60zuQo.ltrans7.ltrans.o
 .bss           0x0000000000000000        0x0 /cygdrive/c/Users/huangli/AppData/Local/Temp/concurrent_sampleLight_b92.elf.60zuQo.ltrans7.ltrans.o
 .sbss.T_taskRunCnt
                0x0000000000000000        0x1 /cygdrive/c/Users/huangli/AppData/Local/Temp/concurrent_sampleLight_b92.elf.60zuQo.ltrans7.ltrans.o
 .sbss.T_taskBleTrig
                0x0000000000000000        0x1 /cygdrive/c/Users/huangli/AppData/Local/Temp/concurrent_sampleLight_b92.elf.60zuQo.ltrans7.ltrans.o
 .sbss.ble_mode_end_event_tick
                0x0000000000000000        0x4 /cygdrive/c/Users/huangli/AppData/Local/Temp/concurrent_sampleLight_b92.elf.60zuQo.ltrans7.ltrans.o
 .sbss.ble_mode_next_event_tick
                0x0000000000000000        0x4 /cygdrive/c/Users/huangli/AppData/Local/Temp/concurrent_sampleLight_b92.elf.60zuQo.ltrans7.ltrans.o
 .sbss.ble_mode_event_end_flag
                0x0000000000000000        0x4 /cygdrive/c/Users/huangli/AppData/Local/Temp/concurrent_sampleLight_b92.elf.60zuQo.ltrans7.ltrans.o
 .sdata.blc_adv_chn_ext_sel
                0x0000000000000000        0x1 /cygdrive/c/Users/huangli/AppData/Local/Temp/concurrent_sampleLight_b92.elf.60zuQo.ltrans7.ltrans.o
 .sbss.T_rebootCnt6
                0x0000000000000000        0x1 /cygdrive/c/Users/huangli/AppData/Local/Temp/concurrent_sampleLight_b92.elf.60zuQo.ltrans7.ltrans.o
 .sbss.T_rebootCnt8
                0x0000000000000000        0x1 /cygdrive/c/Users/huangli/AppData/Local/Temp/concurrent_sampleLight_b92.elf.60zuQo.ltrans7.ltrans.o
 .sbss.T_cur_run_fw_addr
                0x0000000000000000        0x4 /cygdrive/c/Users/huangli/AppData/Local/Temp/concurrent_sampleLight_b92.elf.60zuQo.ltrans7.ltrans.o
 .sbss.T_readFlag
                0x0000000000000000        0x4 /cygdrive/c/Users/huangli/AppData/Local/Temp/concurrent_sampleLight_b92.elf.60zuQo.ltrans7.ltrans.o
 .sdata.g_pm_early_wakeup_time_us
                0x0000000000000000        0x8 /cygdrive/c/Users/huangli/AppData/Local/Temp/concurrent_sampleLight_b92.elf.60zuQo.ltrans7.ltrans.o
 .sdata.g_pm_r_delay_cycle
                0x0000000000000000        0x8 /cygdrive/c/Users/huangli/AppData/Local/Temp/concurrent_sampleLight_b92.elf.60zuQo.ltrans7.ltrans.o
 .sbss.T_DBG_decFrameCnt
                0x0000000000000000        0x1 /cygdrive/c/Users/huangli/AppData/Local/Temp/concurrent_sampleLight_b92.elf.60zuQo.ltrans7.ltrans.o
 .data          0x0000000000000000        0x0 ./platform/boot/b92/cstartup_b92.o
 .bss           0x0000000000000000        0x0 ./platform/boot/b92/cstartup_b92.o
 .text          0x0000000000000000        0x0 ./platform/boot/link_cfg.o
 .data          0x0000000000000000        0x0 ./platform/boot/link_cfg.o
 .bss           0x0000000000000000        0x0 ./platform/boot/link_cfg.o
 .riscv.attributes
                0x0000000000000000       0x33 ./platform/boot/link_cfg.o
 .text          0x0000000000000000        0x0 C:\TelinkIoTStudio\RDS\V5.1.2\toolchains\nds32le-elf-mculib-v5f\riscv32-elf\lib/libm.a(lib_a-exp.o)
 .data          0x0000000000000000        0x0 C:\TelinkIoTStudio\RDS\V5.1.2\toolchains\nds32le-elf-mculib-v5f\riscv32-elf\lib/libm.a(lib_a-exp.o)
 .bss           0x0000000000000000        0x0 C:\TelinkIoTStudio\RDS\V5.1.2\toolchains\nds32le-elf-mculib-v5f\riscv32-elf\lib/libm.a(lib_a-exp.o)
 .text          0x0000000000000000        0x0 C:\TelinkIoTStudio\RDS\V5.1.2\toolchains\nds32le-elf-mculib-v5f\riscv32-elf\lib/libm.a(lib_a-exp_data.o)
 .data          0x0000000000000000        0x0 C:\TelinkIoTStudio\RDS\V5.1.2\toolchains\nds32le-elf-mculib-v5f\riscv32-elf\lib/libm.a(lib_a-exp_data.o)
 .bss           0x0000000000000000        0x0 C:\TelinkIoTStudio\RDS\V5.1.2\toolchains\nds32le-elf-mculib-v5f\riscv32-elf\lib/libm.a(lib_a-exp_data.o)
 .text          0x0000000000000000        0x0 C:\TelinkIoTStudio\RDS\V5.1.2\toolchains\nds32le-elf-mculib-v5f\riscv32-elf\lib/libm.a(lib_a-log.o)
 .data          0x0000000000000000        0x0 C:\TelinkIoTStudio\RDS\V5.1.2\toolchains\nds32le-elf-mculib-v5f\riscv32-elf\lib/libm.a(lib_a-log.o)
 .bss           0x0000000000000000        0x0 C:\TelinkIoTStudio\RDS\V5.1.2\toolchains\nds32le-elf-mculib-v5f\riscv32-elf\lib/libm.a(lib_a-log.o)
 .text          0x0000000000000000        0x0 C:\TelinkIoTStudio\RDS\V5.1.2\toolchains\nds32le-elf-mculib-v5f\riscv32-elf\lib/libm.a(lib_a-log_data.o)
 .data          0x0000000000000000        0x0 C:\TelinkIoTStudio\RDS\V5.1.2\toolchains\nds32le-elf-mculib-v5f\riscv32-elf\lib/libm.a(lib_a-log_data.o)
 .bss           0x0000000000000000        0x0 C:\TelinkIoTStudio\RDS\V5.1.2\toolchains\nds32le-elf-mculib-v5f\riscv32-elf\lib/libm.a(lib_a-log_data.o)
 .text          0x0000000000000000        0x0 C:\TelinkIoTStudio\RDS\V5.1.2\toolchains\nds32le-elf-mculib-v5f\riscv32-elf\lib/libm.a(lib_a-math_err.o)
 .data          0x0000000000000000        0x0 C:\TelinkIoTStudio\RDS\V5.1.2\toolchains\nds32le-elf-mculib-v5f\riscv32-elf\lib/libm.a(lib_a-math_err.o)
 .bss           0x0000000000000000        0x0 C:\TelinkIoTStudio\RDS\V5.1.2\toolchains\nds32le-elf-mculib-v5f\riscv32-elf\lib/libm.a(lib_a-math_err.o)
 .rodata.__math_may_uflow.cst8
                0x0000000000000000        0x8 C:\TelinkIoTStudio\RDS\V5.1.2\toolchains\nds32le-elf-mculib-v5f\riscv32-elf\lib/libm.a(lib_a-math_err.o)
 .text.__math_may_uflow
                0x0000000000000000       0x14 C:\TelinkIoTStudio\RDS\V5.1.2\toolchains\nds32le-elf-mculib-v5f\riscv32-elf\lib/libm.a(lib_a-math_err.o)
 .text          0x0000000000000000        0x0 C:\TelinkIoTStudio\RDS\V5.1.2\toolchains\nds32le-elf-mculib-v5f\riscv32-elf\lib/libm.a(lib_a-s_fabs.o)
 .data          0x0000000000000000        0x0 C:\TelinkIoTStudio\RDS\V5.1.2\toolchains\nds32le-elf-mculib-v5f\riscv32-elf\lib/libm.a(lib_a-s_fabs.o)
 .bss           0x0000000000000000        0x0 C:\TelinkIoTStudio\RDS\V5.1.2\toolchains\nds32le-elf-mculib-v5f\riscv32-elf\lib/libm.a(lib_a-s_fabs.o)
 .text          0x0000000000000000        0x0 C:\TelinkIoTStudio\RDS\V5.1.2\toolchains\nds32le-elf-mculib-v5f\riscv32-elf\lib/libm.a(lib_a-sf_ceil.o)
 .data          0x0000000000000000        0x0 C:\TelinkIoTStudio\RDS\V5.1.2\toolchains\nds32le-elf-mculib-v5f\riscv32-elf\lib/libm.a(lib_a-sf_ceil.o)
 .bss           0x0000000000000000        0x0 C:\TelinkIoTStudio\RDS\V5.1.2\toolchains\nds32le-elf-mculib-v5f\riscv32-elf\lib/libm.a(lib_a-sf_ceil.o)
 .data          0x0000000000000000        0x0 /cygdrive/c/TelinkIoTStudio/RDS/V5.1.2/toolchains/nds32le-elf-mculib-v5f/bin/../lib/gcc/riscv32-elf/10.3.0/mext-dsp/libgcc.a(_addsub_df.o)
 .bss           0x0000000000000000        0x0 /cygdrive/c/TelinkIoTStudio/RDS/V5.1.2/toolchains/nds32le-elf-mculib-v5f/bin/../lib/gcc/riscv32-elf/10.3.0/mext-dsp/libgcc.a(_addsub_df.o)
 .data          0x0000000000000000        0x0 /cygdrive/c/TelinkIoTStudio/RDS/V5.1.2/toolchains/nds32le-elf-mculib-v5f/bin/../lib/gcc/riscv32-elf/10.3.0/mext-dsp/libgcc.a(_mul_df.o)
 .bss           0x0000000000000000        0x0 /cygdrive/c/TelinkIoTStudio/RDS/V5.1.2/toolchains/nds32le-elf-mculib-v5f/bin/../lib/gcc/riscv32-elf/10.3.0/mext-dsp/libgcc.a(_mul_df.o)
 .data          0x0000000000000000        0x0 /cygdrive/c/TelinkIoTStudio/RDS/V5.1.2/toolchains/nds32le-elf-mculib-v5f/bin/../lib/gcc/riscv32-elf/10.3.0/mext-dsp/libgcc.a(_div_df.o)
 .bss           0x0000000000000000        0x0 /cygdrive/c/TelinkIoTStudio/RDS/V5.1.2/toolchains/nds32le-elf-mculib-v5f/bin/../lib/gcc/riscv32-elf/10.3.0/mext-dsp/libgcc.a(_div_df.o)
 .data          0x0000000000000000        0x0 /cygdrive/c/TelinkIoTStudio/RDS/V5.1.2/toolchains/nds32le-elf-mculib-v5f/bin/../lib/gcc/riscv32-elf/10.3.0/mext-dsp/libgcc.a(_si_to_df.o)
 .bss           0x0000000000000000        0x0 /cygdrive/c/TelinkIoTStudio/RDS/V5.1.2/toolchains/nds32le-elf-mculib-v5f/bin/../lib/gcc/riscv32-elf/10.3.0/mext-dsp/libgcc.a(_si_to_df.o)
 .data          0x0000000000000000        0x0 /cygdrive/c/TelinkIoTStudio/RDS/V5.1.2/toolchains/nds32le-elf-mculib-v5f/bin/../lib/gcc/riscv32-elf/10.3.0/mext-dsp/libgcc.a(_compare_df.o)
 .bss           0x0000000000000000        0x0 /cygdrive/c/TelinkIoTStudio/RDS/V5.1.2/toolchains/nds32le-elf-mculib-v5f/bin/../lib/gcc/riscv32-elf/10.3.0/mext-dsp/libgcc.a(_compare_df.o)
 .data          0x0000000000000000        0x0 /cygdrive/c/TelinkIoTStudio/RDS/V5.1.2/toolchains/nds32le-elf-mculib-v5f/bin/../lib/gcc/riscv32-elf/10.3.0/mext-dsp/libgcc.a(_unord_df.o)
 .bss           0x0000000000000000        0x0 /cygdrive/c/TelinkIoTStudio/RDS/V5.1.2/toolchains/nds32le-elf-mculib-v5f/bin/../lib/gcc/riscv32-elf/10.3.0/mext-dsp/libgcc.a(_unord_df.o)
 .data          0x0000000000000000        0x0 /cygdrive/c/TelinkIoTStudio/RDS/V5.1.2/toolchains/nds32le-elf-mculib-v5f/bin/../lib/gcc/riscv32-elf/10.3.0/mext-dsp/libgcc.a(_clzsi2.o)
 .bss           0x0000000000000000        0x0 /cygdrive/c/TelinkIoTStudio/RDS/V5.1.2/toolchains/nds32le-elf-mculib-v5f/bin/../lib/gcc/riscv32-elf/10.3.0/mext-dsp/libgcc.a(_clzsi2.o)
 .data          0x0000000000000000        0x0 /cygdrive/c/TelinkIoTStudio/RDS/V5.1.2/toolchains/nds32le-elf-mculib-v5f/bin/../lib/gcc/riscv32-elf/10.3.0/mext-dsp/libgcc.a(save-restore.o)
 .bss           0x0000000000000000        0x0 /cygdrive/c/TelinkIoTStudio/RDS/V5.1.2/toolchains/nds32le-elf-mculib-v5f/bin/../lib/gcc/riscv32-elf/10.3.0/mext-dsp/libgcc.a(save-restore.o)
 .text          0x0000000000000000        0x0 /cygdrive/c/TelinkIoTStudio/RDS/V5.1.2/toolchains/nds32le-elf-mculib-v5f/bin/../lib/gcc/riscv32-elf/10.3.0/mext-dsp/libgcc.a(_clz.o)
 .data          0x0000000000000000        0x0 /cygdrive/c/TelinkIoTStudio/RDS/V5.1.2/toolchains/nds32le-elf-mculib-v5f/bin/../lib/gcc/riscv32-elf/10.3.0/mext-dsp/libgcc.a(_clz.o)
 .bss           0x0000000000000000        0x0 /cygdrive/c/TelinkIoTStudio/RDS/V5.1.2/toolchains/nds32le-elf-mculib-v5f/bin/../lib/gcc/riscv32-elf/10.3.0/mext-dsp/libgcc.a(_clz.o)
 .data          0x0000000000000000        0x0 /cygdrive/c/TelinkIoTStudio/RDS/V5.1.2/toolchains/nds32le-elf-mculib-v5f/bin/../lib/gcc/riscv32-elf/10.3.0/mext-dsp/libgcc.a(_sf_to_df.o)
 .bss           0x0000000000000000        0x0 /cygdrive/c/TelinkIoTStudio/RDS/V5.1.2/toolchains/nds32le-elf-mculib-v5f/bin/../lib/gcc/riscv32-elf/10.3.0/mext-dsp/libgcc.a(_sf_to_df.o)
 .data          0x0000000000000000        0x0 /cygdrive/c/TelinkIoTStudio/RDS/V5.1.2/toolchains/nds32le-elf-mculib-v5f/bin/../lib/gcc/riscv32-elf/10.3.0/mext-dsp/libgcc.a(_df_to_sf.o)
 .bss           0x0000000000000000        0x0 /cygdrive/c/TelinkIoTStudio/RDS/V5.1.2/toolchains/nds32le-elf-mculib-v5f/bin/../lib/gcc/riscv32-elf/10.3.0/mext-dsp/libgcc.a(_df_to_sf.o)
 .data          0x0000000000000000        0x0 /cygdrive/c/TelinkIoTStudio/RDS/V5.1.2/toolchains/nds32le-elf-mculib-v5f/bin/../lib/gcc/riscv32-elf/10.3.0/mext-dsp/libgcc.a(_fixunsdfsi.o)
 .bss           0x0000000000000000        0x0 /cygdrive/c/TelinkIoTStudio/RDS/V5.1.2/toolchains/nds32le-elf-mculib-v5f/bin/../lib/gcc/riscv32-elf/10.3.0/mext-dsp/libgcc.a(_fixunsdfsi.o)
 .text          0x0000000000000000        0x0 C:\TelinkIoTStudio\RDS\V5.1.2\toolchains\nds32le-elf-mculib-v5f\riscv32-elf\lib/libc.a(lib_a-errno.o)
 .data          0x0000000000000000        0x0 C:\TelinkIoTStudio\RDS\V5.1.2\toolchains\nds32le-elf-mculib-v5f\riscv32-elf\lib/libc.a(lib_a-errno.o)
 .bss           0x0000000000000000        0x0 C:\TelinkIoTStudio\RDS\V5.1.2\toolchains\nds32le-elf-mculib-v5f\riscv32-elf\lib/libc.a(lib_a-errno.o)
 .text.__errno  0x0000000000000000        0xa C:\TelinkIoTStudio\RDS\V5.1.2\toolchains\nds32le-elf-mculib-v5f\riscv32-elf\lib/libc.a(lib_a-errno.o)
 .text          0x0000000000000000        0x0 C:\TelinkIoTStudio\RDS\V5.1.2\toolchains\nds32le-elf-mculib-v5f\riscv32-elf\lib/libc.a(lib_a-printf.o)
 .data          0x0000000000000000        0x0 C:\TelinkIoTStudio\RDS\V5.1.2\toolchains\nds32le-elf-mculib-v5f\riscv32-elf\lib/libc.a(lib_a-printf.o)
 .bss           0x0000000000000000        0x0 C:\TelinkIoTStudio\RDS\V5.1.2\toolchains\nds32le-elf-mculib-v5f\riscv32-elf\lib/libc.a(lib_a-printf.o)
 .text          0x0000000000000000        0x0 C:\TelinkIoTStudio\RDS\V5.1.2\toolchains\nds32le-elf-mculib-v5f\riscv32-elf\lib/libc.a(lib_a-snprintf.o)
 .data          0x0000000000000000        0x0 C:\TelinkIoTStudio\RDS\V5.1.2\toolchains\nds32le-elf-mculib-v5f\riscv32-elf\lib/libc.a(lib_a-snprintf.o)
 .bss           0x0000000000000000        0x0 C:\TelinkIoTStudio\RDS\V5.1.2\toolchains\nds32le-elf-mculib-v5f\riscv32-elf\lib/libc.a(lib_a-snprintf.o)
 .text.snprintf
                0x0000000000000000       0x20 C:\TelinkIoTStudio\RDS\V5.1.2\toolchains\nds32le-elf-mculib-v5f\riscv32-elf\lib/libc.a(lib_a-snprintf.o)
 .comment       0x0000000000000000       0x3d C:\TelinkIoTStudio\RDS\V5.1.2\toolchains\nds32le-elf-mculib-v5f\riscv32-elf\lib/libc.a(lib_a-snprintf.o)
 .riscv.attributes
                0x0000000000000000       0x35 C:\TelinkIoTStudio\RDS\V5.1.2\toolchains\nds32le-elf-mculib-v5f\riscv32-elf\lib/libc.a(lib_a-snprintf.o)
 .text          0x0000000000000000        0x0 C:\TelinkIoTStudio\RDS\V5.1.2\toolchains\nds32le-elf-mculib-v5f\riscv32-elf\lib/libc.a(lib_a-vprintf.o)
 .data          0x0000000000000000        0x0 C:\TelinkIoTStudio\RDS\V5.1.2\toolchains\nds32le-elf-mculib-v5f\riscv32-elf\lib/libc.a(lib_a-vprintf.o)
 .bss           0x0000000000000000        0x0 C:\TelinkIoTStudio\RDS\V5.1.2\toolchains\nds32le-elf-mculib-v5f\riscv32-elf\lib/libc.a(lib_a-vprintf.o)
 .text          0x0000000000000000        0x0 C:\TelinkIoTStudio\RDS\V5.1.2\toolchains\nds32le-elf-mculib-v5f\riscv32-elf\lib/libc.a(lib_a-vsnprintf.o)
 .data          0x0000000000000000        0x0 C:\TelinkIoTStudio\RDS\V5.1.2\toolchains\nds32le-elf-mculib-v5f\riscv32-elf\lib/libc.a(lib_a-vsnprintf.o)
 .bss           0x0000000000000000        0x0 C:\TelinkIoTStudio\RDS\V5.1.2\toolchains\nds32le-elf-mculib-v5f\riscv32-elf\lib/libc.a(lib_a-vsnprintf.o)
 .text.__vsnprintf_help
                0x0000000000000000       0x2e C:\TelinkIoTStudio\RDS\V5.1.2\toolchains\nds32le-elf-mculib-v5f\riscv32-elf\lib/libc.a(lib_a-vsnprintf.o)
 .text.vsnprintf
                0x0000000000000000       0x54 C:\TelinkIoTStudio\RDS\V5.1.2\toolchains\nds32le-elf-mculib-v5f\riscv32-elf\lib/libc.a(lib_a-vsnprintf.o)
 .sbss.__vsprintf_buf_end
                0x0000000000000000        0x4 C:\TelinkIoTStudio\RDS\V5.1.2\toolchains\nds32le-elf-mculib-v5f\riscv32-elf\lib/libc.a(lib_a-vsnprintf.o)
 .sbss.__vsprintf_buf
                0x0000000000000000        0x4 C:\TelinkIoTStudio\RDS\V5.1.2\toolchains\nds32le-elf-mculib-v5f\riscv32-elf\lib/libc.a(lib_a-vsnprintf.o)
 .comment       0x0000000000000000       0x3d C:\TelinkIoTStudio\RDS\V5.1.2\toolchains\nds32le-elf-mculib-v5f\riscv32-elf\lib/libc.a(lib_a-vsnprintf.o)
 .riscv.attributes
                0x0000000000000000       0x35 C:\TelinkIoTStudio\RDS\V5.1.2\toolchains\nds32le-elf-mculib-v5f\riscv32-elf\lib/libc.a(lib_a-vsnprintf.o)
 .text          0x0000000000000000        0x0 C:\TelinkIoTStudio\RDS\V5.1.2\toolchains\nds32le-elf-mculib-v5f\riscv32-elf\lib/libc.a(lib_a-printf_data.o)
 .data          0x0000000000000000        0x0 C:\TelinkIoTStudio\RDS\V5.1.2\toolchains\nds32le-elf-mculib-v5f\riscv32-elf\lib/libc.a(lib_a-printf_data.o)
 .bss           0x0000000000000000        0x0 C:\TelinkIoTStudio\RDS\V5.1.2\toolchains\nds32le-elf-mculib-v5f\riscv32-elf\lib/libc.a(lib_a-printf_data.o)
 .text          0x0000000000000000        0x0 C:\TelinkIoTStudio\RDS\V5.1.2\toolchains\nds32le-elf-mculib-v5f\riscv32-elf\lib/libc.a(lib_a-printf_impl.o)
 .data          0x0000000000000000        0x0 C:\TelinkIoTStudio\RDS\V5.1.2\toolchains\nds32le-elf-mculib-v5f\riscv32-elf\lib/libc.a(lib_a-printf_impl.o)
 .bss           0x0000000000000000        0x0 C:\TelinkIoTStudio\RDS\V5.1.2\toolchains\nds32le-elf-mculib-v5f\riscv32-elf\lib/libc.a(lib_a-printf_impl.o)
 .text          0x0000000000000000        0x0 C:\TelinkIoTStudio\RDS\V5.1.2\toolchains\nds32le-elf-mculib-v5f\riscv32-elf\lib/libc.a(lib_a-printf_impl_float.o)
 .data          0x0000000000000000        0x0 C:\TelinkIoTStudio\RDS\V5.1.2\toolchains\nds32le-elf-mculib-v5f\riscv32-elf\lib/libc.a(lib_a-printf_impl_float.o)
 .bss           0x0000000000000000        0x0 C:\TelinkIoTStudio\RDS\V5.1.2\toolchains\nds32le-elf-mculib-v5f\riscv32-elf\lib/libc.a(lib_a-printf_impl_float.o)
 .text          0x0000000000000000        0x0 C:\TelinkIoTStudio\RDS\V5.1.2\toolchains\nds32le-elf-mculib-v5f\riscv32-elf\lib/libc.a(lib_a-strnlen.o)
 .data          0x0000000000000000        0x0 C:\TelinkIoTStudio\RDS\V5.1.2\toolchains\nds32le-elf-mculib-v5f\riscv32-elf\lib/libc.a(lib_a-strnlen.o)
 .bss           0x0000000000000000        0x0 C:\TelinkIoTStudio\RDS\V5.1.2\toolchains\nds32le-elf-mculib-v5f\riscv32-elf\lib/libc.a(lib_a-strnlen.o)

Memory Configuration

Name             Origin             Length             Attributes
*default*        0x0000000000000000 0xffffffffffffffff

Linker script and memory map

LOAD /cygdrive/c/Users/huangli/AppData/Local/Temp/concurrent_sampleLight_b92.elf.60zuQo.ltrans0.ltrans.o
LOAD /cygdrive/c/Users/huangli/AppData/Local/Temp/concurrent_sampleLight_b92.elf.60zuQo.ltrans1.ltrans.o
LOAD /cygdrive/c/Users/huangli/AppData/Local/Temp/concurrent_sampleLight_b92.elf.60zuQo.ltrans2.ltrans.o
LOAD /cygdrive/c/Users/huangli/AppData/Local/Temp/concurrent_sampleLight_b92.elf.60zuQo.ltrans3.ltrans.o
LOAD /cygdrive/c/Users/huangli/AppData/Local/Temp/concurrent_sampleLight_b92.elf.60zuQo.ltrans4.ltrans.o
LOAD /cygdrive/c/Users/huangli/AppData/Local/Temp/concurrent_sampleLight_b92.elf.60zuQo.ltrans5.ltrans.o
LOAD /cygdrive/c/Users/huangli/AppData/Local/Temp/concurrent_sampleLight_b92.elf.60zuQo.ltrans6.ltrans.o
LOAD /cygdrive/c/Users/huangli/AppData/Local/Temp/concurrent_sampleLight_b92.elf.60zuQo.ltrans7.ltrans.o
LOAD ./platform/boot/b92/cstartup_b92.o
LOAD ./platform/boot/link_cfg.o
LOAD ../../../stack/ble/lib/libble_b92.a
LOAD F:\github_version\ikea_light_project\lighting_cbb\lib/liblighting_cbb.a
LOAD ../../../platform/lib/libdrivers_b92.a
LOAD ../../../stack/zigbee/lib/riscv_gcc10/libzb_router.a
LOAD C:\TelinkIoTStudio\RDS\V5.1.2\toolchains\nds32le-elf-mculib-v5f\riscv32-elf\lib/libm.a
LOAD /cygdrive/c/TelinkIoTStudio/RDS/V5.1.2/toolchains/nds32le-elf-mculib-v5f/bin/../lib/gcc/riscv32-elf/10.3.0/mext-dsp/libgcc.a
START GROUP
LOAD C:\TelinkIoTStudio\RDS\V5.1.2\toolchains\nds32le-elf-mculib-v5f\riscv32-elf\lib/libc.a
LOAD C:\TelinkIoTStudio\RDS\V5.1.2\toolchains\nds32le-elf-mculib-v5f\riscv32-elf\lib/libgloss.a
END GROUP
LOAD /cygdrive/c/TelinkIoTStudio/RDS/V5.1.2/toolchains/nds32le-elf-mculib-v5f/bin/../lib/gcc/riscv32-elf/10.3.0/mext-dsp/libgcc.a
                0x0000000020000000                NDS_SAG_LMA_FLASH = 0x20000000
                0x0000000020154000                . = (0x20000000 + __FW_OFFSET)
                0x0000000020154000                PROVIDE (BIN_BEGIN = .)

.vectors        0x0000000020154000      0x12a
 *(.vectors)
 .vectors       0x0000000020154000      0x12a ./platform/boot/b92/cstartup_b92.o
                0x0000000020154000                _RESET_ENTRY
                0x0000000000000000                . = 0x0

.retention_reset
                0x0000000000000000      0x130 load address 0x0000000020154130
 *(.retention_reset)
 .retention_reset
                0x0000000000000000      0x130 ./platform/boot/b92/cstartup_b92.o
                0x0000000000000000                _IRESET_ENTRY
                0x0000000000000000                PROVIDE (_RETENTION_RESET_VMA_START = ADDR (.retention_reset))
                0x0000000020154130                PROVIDE (_RETENTION_RESET_LMA_START = LOADADDR (.retention_reset))
                0x0000000000000130                PROVIDE (_RETENTION_RESET_VMA_END = .)
                0x0000000000000130                . = ALIGN (0x8)
                0x0000000000000130                PROVIDE (_AES_VMA_START = .)

.aes_data       0x0000000000000130       0x20 load address 0x0000000020154260
 *(.aes_data)
 .aes_data      0x0000000000000130       0x20 /cygdrive/c/Users/huangli/AppData/Local/Temp/concurrent_sampleLight_b92.elf.60zuQo.ltrans3.ltrans.o
                0x0000000000000130                aes_data_buff
                0x0000000000000150                PROVIDE (_AES_VMA_END = .)
                0x0000000000000150                . = ALIGN (0x8)

.ram_code       0x0000000000000200     0xa002 load address 0x0000000020154260
 *(.ram_code)
 .ram_code      0x0000000000000200      0x5b4 /cygdrive/c/Users/huangli/AppData/Local/Temp/concurrent_sampleLight_b92.elf.60zuQo.ltrans0.ltrans.o
                0x0000000000000204                mac_currentTickGet
                0x0000000000000210                rf_setTrxState
                0x000000000000034c                rf_performCCA
                0x00000000000003ec                rf802154_tx
                0x0000000000000434                rf_rx_irq_handler
                0x0000000000000760                rf_tx_irq_handler
 *fill*         0x00000000000007b4        0x0 
 .ram_code      0x00000000000007b4      0xb36 /cygdrive/c/Users/huangli/AppData/Local/Temp/concurrent_sampleLight_b92.elf.60zuQo.ltrans1.ltrans.o
                0x0000000000000a2c                drv_gpio_write
                0x0000000000000a60                core_interrupt_disable.lto_priv.6.lto_priv.0
                0x0000000000000a60                core_interrupt_disable.lto_priv.12.lto_priv.0
                0x0000000000000a60                core_interrupt_disable.lto_priv.16.lto_priv.0
                0x0000000000000a60                core_interrupt_disable.lto_priv.1.lto_priv.0
                0x0000000000000a60                core_interrupt_disable.lto_priv.11.lto_priv.0
                0x0000000000000a60                core_interrupt_disable.lto_priv.7.lto_priv.0
                0x0000000000000a60                core_interrupt_disable.lto_priv.0.lto_priv.0
                0x0000000000000a60                core_interrupt_disable.lto_priv.9.lto_priv.0
                0x0000000000000a60                core_interrupt_disable.lto_priv.10.lto_priv.0
                0x0000000000000a60                core_interrupt_disable.lto_priv.2.lto_priv.0
                0x0000000000000a60                core_interrupt_disable.lto_priv.4.lto_priv.0
                0x0000000000000a60                core_interrupt_disable.lto_priv.5.lto_priv.0
                0x0000000000000a60                core_interrupt_disable.lto_priv.14.lto_priv.0
                0x0000000000000a60                core_interrupt_disable.lto_priv.8.lto_priv.0
                0x0000000000000a60                core_interrupt_disable.lto_priv.13.lto_priv.0
                0x0000000000000a60                core_interrupt_disable.lto_priv.15.lto_priv.0
                0x0000000000000a60                core_interrupt_disable.lto_priv.3.lto_priv.0
                0x0000000000000a78                drv_disable_irq
                0x0000000000000a7c                trap_entry
                0x0000000000000abc                entry_irq19
                0x0000000000000bc4                entry_irq15
                0x0000000000000cc4                entry_irq3
                0x0000000000000dcc                entry_irq4
                0x0000000000000ed4                entry_irq1
                0x0000000000000fd4                entry_irq25
                0x00000000000010dc                entry_irq26
                0x00000000000011e4                entry_irq27
 *fill*         0x00000000000012ea        0x2 
 .ram_code      0x00000000000012ec     0x3afe /cygdrive/c/Users/huangli/AppData/Local/Temp/concurrent_sampleLight_b92.elf.60zuQo.ltrans2.ltrans.o
                0x0000000000001300                blt_event_callback_func
                0x0000000000001494                blt_ll_incSchedulerTaskPriority
                0x00000000000017d0                blt_ll_resolvSetRpaInUse
                0x0000000000001d08                blt_leg_adv_interrupt_task
                0x000000000000207c                blt_prichn_scan_interrupt_task
                0x00000000000020c0                switch_to_ble_context
                0x000000000000216c                tlk_mem_cpy
                0x0000000000002598                __lshrdi3
                0x00000000000025c8                __ashldi3
                0x00000000000025f8                blt_ll_record_identity_address
                0x0000000000002608                blt_ll_addr_set_peer_address
                0x0000000000002624                blt_ll_calculate_sSlot_next
                0x0000000000002670                blc_sdk_irq_handler
                0x0000000000003058                blt_ll_calMasterInitiateTiming
                0x0000000000003204                blms_post_pre_process
                0x0000000000003248                blms_post_common_1
                0x00000000000033b8                blt_llms_saveTxfifoRptr
                0x0000000000003428                blc_ll_acl_recordRSSI
                0x0000000000003444                blc_ll_acl_recordLatestRSSI
                0x0000000000003454                blt_ll_storePeerDeviceRpa
                0x0000000000003464                blt_ll_searchResolvingListEntry
                0x00000000000034dc                blt_ll_resolve_rpa
                0x0000000000003c40                blt_prichn_procInitPkt
                0x0000000000003c78                irq_scan_rx_primary_channel
                0x000000000000433c                tlkapi_send_str_data
                0x0000000000004340                blt_ll_conn_chn_phy_update
                0x0000000000004b8c                blt_acl_slave_rx_procUpdateReq
                0x0000000000004d14                blt_acl_conn_interrupt_task
 *fill*         0x0000000000004dea        0x2 
 .ram_code      0x0000000000004dec     0x1b9c /cygdrive/c/Users/huangli/AppData/Local/Temp/concurrent_sampleLight_b92.elf.60zuQo.ltrans3.ltrans.o
                0x00000000000051dc                blt_csa1_calculateChannelTable
                0x000000000000529c                csa2_calculateMapInfo
                0x0000000000005314                clock_get_32k_tick
                0x0000000000005340                delay_us
                0x0000000000005360                delay_ms
                0x0000000000005384                pm_retention_register_recover
                0x00000000000053dc                rf_set_chn
                0x0000000000005480                rf_set_rxmode
                0x00000000000056c8                rf_set_power_level_index
                0x0000000000005730                trng_rand
                0x0000000000005774                ble_rf_set_rx_dma
                0x00000000000057c8                ble_rf_set_tx_dma
                0x0000000000005828                rf_set_ble_channel
                0x0000000000005910                tl_zbMacHdrSize
                0x00000000000059d0                sys_reboot_ram
                0x00000000000059ec                mspi_wait.lto_priv.0.lto_priv.0
                0x00000000000059ec                mspi_wait.lto_priv.1.lto_priv.0
                0x0000000000005b94                mspi_stop_xip.lto_priv.0.lto_priv.0
                0x0000000000005bd0                flash_mspi_read_ram
                0x0000000000005c78                flash_mspi_write_ram
                0x0000000000005d28                analog_wait.lto_priv.0
                0x0000000000005d94                analog_read_reg8
                0x0000000000005ddc                wd_32k_get_status
                0x0000000000005df4                analog_write_reg8
                0x0000000000005e3c                wd_32k_stop
                0x0000000000005e58                pm_wait_bbpll_done
                0x00000000000062a0                crystal_manual_settle
                0x00000000000062e4                rf_drv_ble_init
                0x0000000000006484                clock_cal_24m_rc
                0x000000000000657c                aes_encryption_le
                0x0000000000006650                aes_encryption_be
                0x00000000000066bc                aes_resolve_irk_rpa
                0x000000000000676c                zb_buf_get
                0x000000000000688c                tl_getRxBuf
                0x00000000000068a4                tl_zbTaskQPush
 *fill*         0x0000000000006988        0x0 
 .ram_code      0x0000000000006988      0x74e /cygdrive/c/Users/huangli/AppData/Local/Temp/concurrent_sampleLight_b92.elf.60zuQo.ltrans4.ltrans.o
                0x00000000000069e8                mac_trxTask.lto_priv.0
                0x0000000000006d00                mac_trigger_tx
                0x0000000000006ee8                zb_macDataFilter
                0x0000000000007034                zb_macDataRecvHandler
                0x00000000000070d0                zb_macDataSendHandler
 *fill*         0x00000000000070d6        0x2 
 .ram_code      0x00000000000070d8      0xfbe /cygdrive/c/Users/huangli/AppData/Local/Temp/concurrent_sampleLight_b92.elf.60zuQo.ltrans6.ltrans.o
                0x00000000000070d8                aes_ll_ccm_decryption.constprop.0
                0x00000000000071c0                blt_ll_calCenTaskConcentratedInitTiming.constprop.0
                0x0000000000007308                blt_ll_set_tx_power_by_strategy.constprop.0
                0x000000000000730c                tlk_mem_set4.constprop.0
                0x0000000000007318                tlk_mem_set.constprop.0
                0x0000000000007328                tlkapi_send_str_u8s.constprop.0
                0x0000000000007368                tlkapi_send_str_u32s.constprop.0
                0x00000000000073a0                tlk_mem_cmp.constprop.0
                0x00000000000073c8                blt_ll_searchAddrInWhiteListTbl.constprop.0
                0x0000000000007430                clock_init_ram.constprop.0
                0x000000000000757c                pm_wait_xtal_ready.constprop.0
                0x0000000000007d80                gpio_init.constprop.0
                0x0000000000007ea8                tl_zbMacPendingDataCheck.constprop.0
                0x000000000000802c                analog_read_reg32.constprop.0
                0x0000000000008070                flash_send_cmd.constprop.0
 *fill*         0x0000000000008096        0x2 
 .ram_code      0x0000000000008098     0x2050 /cygdrive/c/Users/huangli/AppData/Local/Temp/concurrent_sampleLight_b92.elf.60zuQo.ltrans7.ltrans.o
                0x0000000000008128                aes_ccmBaseTran.constprop.0.isra.0
                0x0000000000008208                aes_ccmAuthTran.constprop.0.isra.0
                0x0000000000008364                blt_ll_set_slave_conn_interval_level.constprop.0.isra.0
                0x0000000000008368                rf_set_trx_state.isra.0
                0x0000000000008434                blt_ll_addScanRspDevice.isra.0
                0x000000000000849c                blt_ll_buildLegacyAdvTask.isra.0
                0x00000000000085ec                blt_ll_build_acl_slave_schedule.isra.0
                0x0000000000008af8                blt_brx_post.isra.0
                0x0000000000008f34                irq_acl_conn_rx.isra.0
                0x0000000000009190                blms_start_common_2.isra.0
                0x0000000000009248                blt_ll_set_interval_level.isra.0
                0x00000000000092c0                blms_connect_common.isra.0
                0x000000000000951c                core_restore_interrupt.isra.0
                0x000000000000952c                drv_restore_irq.isra.0
                0x0000000000009530                blt_quick_tx_prepare.constprop.0.isra.0
                0x00000000000095e0                blt_ll_send_adv.isra.0
                0x0000000000009da8                zb_buf_free.isra.0
                0x0000000000009f34                tl_zbTaskPost.isra.0
                0x000000000000a008                mac_csmaStart.constprop.0.isra.0
 *fill*         0x000000000000a0e8       0x18 
 .ram_code      0x000000000000a100      0x102 ./platform/boot/b92/cstartup_b92.o
                0x000000000000a100                __vectors
                0x000000000000a202                PROVIDE (_RAMCODE_VMA_END = .)
                0x0000000000000200                PROVIDE (_RAMCODE_VMA_START = ADDR (.ram_code))
                0x0000000020154260                PROVIDE (_RAMCODE_LMA_START = LOADADDR (.ram_code))
                [!provide]                        PROVIDE (_RAMCODE_SIZE = SIZEOF (.ram_code))
                0x000000002015e268                . = ALIGN ((LOADADDR (.ram_code) + SIZEOF (.ram_code)), 0x8)

.text           0x000000002015e268    0x37d9c
 *(.text .stub .text.* .gnu.linkonce.t.*)
 .text.zdp_txCnfCb.lto_priv.0
                0x000000002015e268        0x2 /cygdrive/c/Users/huangli/AppData/Local/Temp/concurrent_sampleLight_b92.elf.60zuQo.ltrans0.ltrans.o
                0x000000002015e268                zdp_txCnfCb.lto_priv.0
 *fill*         0x000000002015e26a        0x2 
 .text.ll_zllAttrClr
                0x000000002015e26c        0xe /cygdrive/c/Users/huangli/AppData/Local/Temp/concurrent_sampleLight_b92.elf.60zuQo.ltrans0.ltrans.o
                0x000000002015e26c                ll_zllAttrClr
 *fill*         0x000000002015e27a        0x2 
 .text.zcl_basic_cmdHandler
                0x000000002015e27c       0x28 /cygdrive/c/Users/huangli/AppData/Local/Temp/concurrent_sampleLight_b92.elf.60zuQo.ltrans0.ltrans.o
 .text.zcl_scene_findAllSceneByGroup
                0x000000002015e2a4       0x50 /cygdrive/c/Users/huangli/AppData/Local/Temp/concurrent_sampleLight_b92.elf.60zuQo.ltrans0.ltrans.o
 .text.reportAttrTimerCb
                0x000000002015e2f4       0xc4 /cygdrive/c/Users/huangli/AppData/Local/Temp/concurrent_sampleLight_b92.elf.60zuQo.ltrans0.ltrans.o
 .text.rf_setRxBuf
                0x000000002015e3b8       0x2e /cygdrive/c/Users/huangli/AppData/Local/Temp/concurrent_sampleLight_b92.elf.60zuQo.ltrans0.ltrans.o
 *fill*         0x000000002015e3e6        0x2 
 .text.rf_setTxPower
                0x000000002015e3e8        0xa /cygdrive/c/Users/huangli/AppData/Local/Temp/concurrent_sampleLight_b92.elf.60zuQo.ltrans0.ltrans.o
                0x000000002015e3e8                rf_setTxPower
 *fill*         0x000000002015e3f2        0x2 
 .text.rf_edDetect.part.0
                0x000000002015e3f4       0x1a /cygdrive/c/Users/huangli/AppData/Local/Temp/concurrent_sampleLight_b92.elf.60zuQo.ltrans0.ltrans.o
 *fill*         0x000000002015e40e        0x2 
 .text.rf_edDetect.lto_priv.0
                0x000000002015e410       0x32 /cygdrive/c/Users/huangli/AppData/Local/Temp/concurrent_sampleLight_b92.elf.60zuQo.ltrans0.ltrans.o
                0x000000002015e410                rf_edDetect.lto_priv.0
 *fill*         0x000000002015e442        0x2 
 .text.zcl_gp_sinkTabReqPrc
                0x000000002015e444       0x9a /cygdrive/c/Users/huangli/AppData/Local/Temp/concurrent_sampleLight_b92.elf.60zuQo.ltrans0.ltrans.o
 *fill*         0x000000002015e4de        0x2 
 .text.zcl_gp_cmdHandler
                0x000000002015e4e0      0x938 /cygdrive/c/Users/huangli/AppData/Local/Temp/concurrent_sampleLight_b92.elf.60zuQo.ltrans0.ltrans.o
 .text.zdp_rxDataIndication.lto_priv.0
                0x000000002015ee18      0x294 /cygdrive/c/Users/huangli/AppData/Local/Temp/concurrent_sampleLight_b92.elf.60zuQo.ltrans0.ltrans.o
                0x000000002015ee18                zdp_rxDataIndication.lto_priv.0
 .text.ll_decrypt_network_key
                0x000000002015f0ac       0xf0 /cygdrive/c/Users/huangli/AppData/Local/Temp/concurrent_sampleLight_b92.elf.60zuQo.ltrans0.ltrans.o
 .text.zcl_rx_handler
                0x000000002015f19c       0x12 /cygdrive/c/Users/huangli/AppData/Local/Temp/concurrent_sampleLight_b92.elf.60zuQo.ltrans0.ltrans.o
                0x000000002015f19c                zcl_rx_handler
 *fill*         0x000000002015f1ae        0x2 
 .text.zcl_zllTouchLinkDeviceInformationRequest
                0x000000002015f1b0       0x74 /cygdrive/c/Users/huangli/AppData/Local/Temp/concurrent_sampleLight_b92.elf.60zuQo.ltrans0.ltrans.o
 .text.zcl_zllRejoinStart
                0x000000002015f224       0xa8 /cygdrive/c/Users/huangli/AppData/Local/Temp/concurrent_sampleLight_b92.elf.60zuQo.ltrans0.ltrans.o
 .text.touchlink_discovery_network
                0x000000002015f2cc       0xca /cygdrive/c/Users/huangli/AppData/Local/Temp/concurrent_sampleLight_b92.elf.60zuQo.ltrans0.ltrans.o
 *fill*         0x000000002015f396        0x2 
 .text.zcl_register
                0x000000002015f398       0x52 /cygdrive/c/Users/huangli/AppData/Local/Temp/concurrent_sampleLight_b92.elf.60zuQo.ltrans0.ltrans.o
                0x000000002015f398                zcl_register
 *fill*         0x000000002015f3ea        0x2 
 .text.zcl_registerCluster
                0x000000002015f3ec       0x72 /cygdrive/c/Users/huangli/AppData/Local/Temp/concurrent_sampleLight_b92.elf.60zuQo.ltrans0.ltrans.o
                0x000000002015f3ec                zcl_registerCluster
 *fill*         0x000000002015f45e        0x2 
 .text.zcl_basic_register
                0x000000002015f460       0x14 /cygdrive/c/Users/huangli/AppData/Local/Temp/concurrent_sampleLight_b92.elf.60zuQo.ltrans0.ltrans.o
                0x000000002015f460                zcl_basic_register
 *fill*         0x000000002015f474        0x0 
 .text.zcl_gp_register
                0x000000002015f474       0x18 /cygdrive/c/Users/huangli/AppData/Local/Temp/concurrent_sampleLight_b92.elf.60zuQo.ltrans0.ltrans.o
                0x000000002015f474                zcl_gp_register
 *fill*         0x000000002015f48c        0x0 
 .text.zcl_group_register
                0x000000002015f48c       0x14 /cygdrive/c/Users/huangli/AppData/Local/Temp/concurrent_sampleLight_b92.elf.60zuQo.ltrans0.ltrans.o
                0x000000002015f48c                zcl_group_register
 *fill*         0x000000002015f4a0        0x0 
 .text.zcl_identify_register
                0x000000002015f4a0       0x14 /cygdrive/c/Users/huangli/AppData/Local/Temp/concurrent_sampleLight_b92.elf.60zuQo.ltrans0.ltrans.o
                0x000000002015f4a0                zcl_identify_register
 *fill*         0x000000002015f4b4        0x0 
 .text.zcl_getAttrSize
                0x000000002015f4b4       0xa8 /cygdrive/c/Users/huangli/AppData/Local/Temp/concurrent_sampleLight_b92.elf.60zuQo.ltrans0.ltrans.o
                0x000000002015f4b4                zcl_getAttrSize
 .text.zcl_parseInWriteCmd
                0x000000002015f55c       0xe6 /cygdrive/c/Users/huangli/AppData/Local/Temp/concurrent_sampleLight_b92.elf.60zuQo.ltrans0.ltrans.o
 *fill*         0x000000002015f642        0x2 
 .text.zcl_findAttribute
                0x000000002015f644       0x56 /cygdrive/c/Users/huangli/AppData/Local/Temp/concurrent_sampleLight_b92.elf.60zuQo.ltrans0.ltrans.o
                0x000000002015f644                zcl_findAttribute
 *fill*         0x000000002015f69a        0x2 
 .text.zcl_getAttrVal
                0x000000002015f69c       0x4e /cygdrive/c/Users/huangli/AppData/Local/Temp/concurrent_sampleLight_b92.elf.60zuQo.ltrans0.ltrans.o
                0x000000002015f69c                zcl_getAttrVal
 *fill*         0x000000002015f6ea        0x2 
 .text.zcl_lightColorCtrl_register
                0x000000002015f6ec       0xd0 /cygdrive/c/Users/huangli/AppData/Local/Temp/concurrent_sampleLight_b92.elf.60zuQo.ltrans0.ltrans.o
                0x000000002015f6ec                zcl_lightColorCtrl_register
 *fill*         0x000000002015f7bc        0x0 
 .text.zcl_lightColorCtrl_cmdHandler
                0x000000002015f7bc      0x540 /cygdrive/c/Users/huangli/AppData/Local/Temp/concurrent_sampleLight_b92.elf.60zuQo.ltrans0.ltrans.o
 .text.zcl_level_register
                0x000000002015fcfc       0xe4 /cygdrive/c/Users/huangli/AppData/Local/Temp/concurrent_sampleLight_b92.elf.60zuQo.ltrans0.ltrans.o
                0x000000002015fcfc                zcl_level_register
 .text.zcl_level_cmdHandler
                0x000000002015fde0      0x230 /cygdrive/c/Users/huangli/AppData/Local/Temp/concurrent_sampleLight_b92.elf.60zuQo.ltrans0.ltrans.o
 .text.zcl_onOff_register
                0x0000000020160010      0x100 /cygdrive/c/Users/huangli/AppData/Local/Temp/concurrent_sampleLight_b92.elf.60zuQo.ltrans0.ltrans.o
                0x0000000020160010                zcl_onOff_register
 .text.zcl_onOff_cmdHandler
                0x0000000020160110      0x106 /cygdrive/c/Users/huangli/AppData/Local/Temp/concurrent_sampleLight_b92.elf.60zuQo.ltrans0.ltrans.o
 *fill*         0x0000000020160216        0x2 
 .text.zcl_scene_updateSceneCntAttr
                0x0000000020160218       0x8e /cygdrive/c/Users/huangli/AppData/Local/Temp/concurrent_sampleLight_b92.elf.60zuQo.ltrans0.ltrans.o
 *fill*         0x00000000201602a6        0x2 
 .text.zcl_scene_register
                0x00000000201602a8       0xae /cygdrive/c/Users/huangli/AppData/Local/Temp/concurrent_sampleLight_b92.elf.60zuQo.ltrans0.ltrans.o
                0x00000000201602a8                zcl_scene_register
 *fill*         0x0000000020160356        0x2 
 .text.zcl_scene_removeAllSceneEntry
                0x0000000020160358       0xc8 /cygdrive/c/Users/huangli/AppData/Local/Temp/concurrent_sampleLight_b92.elf.60zuQo.ltrans0.ltrans.o
 *fill*         0x0000000020160420        0x0 
 .text.zcl_attrWrite
                0x0000000020160420       0x92 /cygdrive/c/Users/huangli/AppData/Local/Temp/concurrent_sampleLight_b92.elf.60zuQo.ltrans0.ltrans.o
 *fill*         0x00000000201604b2        0x2 
 .text.zcl_writeHandler
                0x00000000201604b4      0x18c /cygdrive/c/Users/huangli/AppData/Local/Temp/concurrent_sampleLight_b92.elf.60zuQo.ltrans0.ltrans.o
 *fill*         0x0000000020160640        0x0 
 .text.zcl_sendCmd
                0x0000000020160640       0xd8 /cygdrive/c/Users/huangli/AppData/Local/Temp/concurrent_sampleLight_b92.elf.60zuQo.ltrans0.ltrans.o
                0x0000000020160640                zcl_sendCmd
 .text.zcl_group_cmdHandler
                0x0000000020160718      0x76a /cygdrive/c/Users/huangli/AppData/Local/Temp/concurrent_sampleLight_b92.elf.60zuQo.ltrans0.ltrans.o
 *fill*         0x0000000020160e82        0x2 
 .text.zcl_identify_cmdHandler
                0x0000000020160e84      0x178 /cygdrive/c/Users/huangli/AppData/Local/Temp/concurrent_sampleLight_b92.elf.60zuQo.ltrans0.ltrans.o
 .text.zcl_scene_cmdHandler
                0x0000000020160ffc     0x10ca /cygdrive/c/Users/huangli/AppData/Local/Temp/concurrent_sampleLight_b92.elf.60zuQo.ltrans0.ltrans.o
 *fill*         0x00000000201620c6        0x2 
 .text.reportAttrTimerStart.part.0
                0x00000000201620c8       0xb0 /cygdrive/c/Users/huangli/AppData/Local/Temp/concurrent_sampleLight_b92.elf.60zuQo.ltrans0.ltrans.o
                0x00000000201620c8                reportAttrTimerStart.part.0
 .text.zcl_configureReporting
                0x0000000020162178      0x2c2 /cygdrive/c/Users/huangli/AppData/Local/Temp/concurrent_sampleLight_b92.elf.60zuQo.ltrans0.ltrans.o
                0x0000000020162178                zcl_configureReporting
 *fill*         0x000000002016243a        0x2 
 .text.zcl_cmdHandler
                0x000000002016243c     0x1a62 /cygdrive/c/Users/huangli/AppData/Local/Temp/concurrent_sampleLight_b92.elf.60zuQo.ltrans0.ltrans.o
 *fill*         0x0000000020163e9e        0x2 
 .text.zb_rfTxDoing
                0x0000000020163ea0        0xa /cygdrive/c/Users/huangli/AppData/Local/Temp/concurrent_sampleLight_b92.elf.60zuQo.ltrans0.ltrans.o
                0x0000000020163ea0                zb_rfTxDoing
 *fill*         0x0000000020163eaa        0x2 
 .text.rf_setChannel.part.0
                0x0000000020163eac       0x92 /cygdrive/c/Users/huangli/AppData/Local/Temp/concurrent_sampleLight_b92.elf.60zuQo.ltrans0.ltrans.o
                0x0000000020163eac                rf_setChannel.part.0
 *fill*         0x0000000020163f3e        0x2 
 .text.rf_setChannel
                0x0000000020163f40       0x12 /cygdrive/c/Users/huangli/AppData/Local/Temp/concurrent_sampleLight_b92.elf.60zuQo.ltrans0.ltrans.o
                0x0000000020163f40                rf_setChannel
 *fill*         0x0000000020163f52        0x2 
 .text.rf_reset
                0x0000000020163f54       0xf4 /cygdrive/c/Users/huangli/AppData/Local/Temp/concurrent_sampleLight_b92.elf.60zuQo.ltrans0.ltrans.o
                0x0000000020163f54                rf_reset
 *fill*         0x0000000020164048        0x0 
 .text.zcl_touchLinkScanStart.lto_priv.0
                0x0000000020164048      0x168 /cygdrive/c/Users/huangli/AppData/Local/Temp/concurrent_sampleLight_b92.elf.60zuQo.ltrans0.ltrans.o
                0x0000000020164048                zcl_touchLinkScanStart.lto_priv.0
 .text.tl_zbNwkZllCommissionScanConfirm
                0x00000000201641b0      0x248 /cygdrive/c/Users/huangli/AppData/Local/Temp/concurrent_sampleLight_b92.elf.60zuQo.ltrans0.ltrans.o
 .text.zcl_zllTouchLinkStartRouteRequest
                0x00000000201643f8       0xcc /cygdrive/c/Users/huangli/AppData/Local/Temp/concurrent_sampleLight_b92.elf.60zuQo.ltrans0.ltrans.o
 .text.zcl_zllTouchLinkNetworkJoinRealjoin
                0x00000000201644c4      0x142 /cygdrive/c/Users/huangli/AppData/Local/Temp/concurrent_sampleLight_b92.elf.60zuQo.ltrans0.ltrans.o
 *fill*         0x0000000020164606        0x2 
 .text.zcl_zllTouchLinkLeaveCnfCb
                0x0000000020164608       0x3c /cygdrive/c/Users/huangli/AppData/Local/Temp/concurrent_sampleLight_b92.elf.60zuQo.ltrans0.ltrans.o
                0x0000000020164608                zcl_zllTouchLinkLeaveCnfCb
 *fill*         0x0000000020164644        0x0 
 .text.zcl_zllTouchLinkNetworkStartOrJoinNwkLeave
                0x0000000020164644       0x96 /cygdrive/c/Users/huangli/AppData/Local/Temp/concurrent_sampleLight_b92.elf.60zuQo.ltrans0.ltrans.o
 *fill*         0x00000000201646da        0x2 
 .text.zcl_zllTouchLinkFinish
                0x00000000201646dc      0x142 /cygdrive/c/Users/huangli/AppData/Local/Temp/concurrent_sampleLight_b92.elf.60zuQo.ltrans0.ltrans.o
                0x00000000201646dc                zcl_zllTouchLinkFinish
 *fill*         0x000000002016481e        0x2 
 .text.zcl_touchLinkIdentifyRequestDone
                0x0000000020164820       0x16 /cygdrive/c/Users/huangli/AppData/Local/Temp/concurrent_sampleLight_b92.elf.60zuQo.ltrans0.ltrans.o
 *fill*         0x0000000020164836        0x2 
 .text.zcl_zllTouchLinkIdentifyRequest
                0x0000000020164838      0x1fc /cygdrive/c/Users/huangli/AppData/Local/Temp/concurrent_sampleLight_b92.elf.60zuQo.ltrans0.ltrans.o
 .text.zcl_zllTouchLinkNetworkStartOrJoin
                0x0000000020164a34      0x41a /cygdrive/c/Users/huangli/AppData/Local/Temp/concurrent_sampleLight_b92.elf.60zuQo.ltrans0.ltrans.o
                0x0000000020164a34                zcl_zllTouchLinkNetworkStartOrJoin
 *fill*         0x0000000020164e4e        0x2 
 .text.zcl_zllTouchLinkDiscoverydone
                0x0000000020164e50      0x110 /cygdrive/c/Users/huangli/AppData/Local/Temp/concurrent_sampleLight_b92.elf.60zuQo.ltrans0.ltrans.o
 .text.zcl_zllTouchLinNetworkStartRespCmdSend
                0x0000000020164f60       0xd2 /cygdrive/c/Users/huangli/AppData/Local/Temp/concurrent_sampleLight_b92.elf.60zuQo.ltrans0.ltrans.o
 *fill*         0x0000000020165032        0x2 
 .text.zcl_zllTouchLinkStartNetworkStartOrJoinTimeout
                0x0000000020165034       0x18 /cygdrive/c/Users/huangli/AppData/Local/Temp/concurrent_sampleLight_b92.elf.60zuQo.ltrans0.ltrans.o
 .text.zcl_zllTouchLinkNetworkStartDirectJoin
                0x000000002016504c       0xd0 /cygdrive/c/Users/huangli/AppData/Local/Temp/concurrent_sampleLight_b92.elf.60zuQo.ltrans0.ltrans.o
                0x000000002016504c                zcl_zllTouchLinkNetworkStartDirectJoin
 .text.zcl_zllTouchLinkNetworkStartResponseHandler
                0x000000002016511c       0x60 /cygdrive/c/Users/huangli/AppData/Local/Temp/concurrent_sampleLight_b92.elf.60zuQo.ltrans0.ltrans.o
 .text.zcl_zllTouchLinkNetwokJoinResponseHandler
                0x000000002016517c       0x14 /cygdrive/c/Users/huangli/AppData/Local/Temp/concurrent_sampleLight_b92.elf.60zuQo.ltrans0.ltrans.o
 .text.zcl_zllTouchLinkTimeout
                0x0000000020165190       0x18 /cygdrive/c/Users/huangli/AppData/Local/Temp/concurrent_sampleLight_b92.elf.60zuQo.ltrans0.ltrans.o
                0x0000000020165190                zcl_zllTouchLinkTimeout
 .text.zcl_touchLinkCmdHandler
                0x00000000201651a8     0x1048 /cygdrive/c/Users/huangli/AppData/Local/Temp/concurrent_sampleLight_b92.elf.60zuQo.ltrans0.ltrans.o
                0x00000000201651a8                zcl_touchLinkCmdHandler
 .text.gpChangleChannelReqCb
                0x00000000201661f0        0x6 /cygdrive/c/Users/huangli/AppData/Local/Temp/concurrent_sampleLight_b92.elf.60zuQo.ltrans1.ltrans.o
                0x00000000201661f0                gpChangleChannelReqCb
 *fill*         0x00000000201661f6        0x2 
 .text.gpDataCnfPrc
                0x00000000201661f8        0x2 /cygdrive/c/Users/huangli/AppData/Local/Temp/concurrent_sampleLight_b92.elf.60zuQo.ltrans1.ltrans.o
 *fill*         0x00000000201661fa        0x2 
 .text.gp_getProxyTabEntryLen
                0x00000000201661fc       0xa2 /cygdrive/c/Users/huangli/AppData/Local/Temp/concurrent_sampleLight_b92.elf.60zuQo.ltrans1.ltrans.o
 *fill*         0x000000002016629e        0x2 
 .text.gp_buildProxyTabEntryFormat
                0x00000000201662a0      0x20e /cygdrive/c/Users/huangli/AppData/Local/Temp/concurrent_sampleLight_b92.elf.60zuQo.ltrans1.ltrans.o
 *fill*         0x00000000201664ae        0x2 
 .text.gp_getProxyTabByGpdId
                0x00000000201664b0       0x9a /cygdrive/c/Users/huangli/AppData/Local/Temp/concurrent_sampleLight_b92.elf.60zuQo.ltrans1.ltrans.o
 *fill*         0x000000002016654a        0x2 
 .text.zclGpProxyTabAttrUpdate.part.0
                0x000000002016654c       0xde /cygdrive/c/Users/huangli/AppData/Local/Temp/concurrent_sampleLight_b92.elf.60zuQo.ltrans1.ltrans.o
 *fill*         0x000000002016662a        0x2 
 .text.bdb_findBindIdentifyQueryTimeout
                0x000000002016662c       0x5e /cygdrive/c/Users/huangli/AppData/Local/Temp/concurrent_sampleLight_b92.elf.60zuQo.ltrans1.ltrans.o
 *fill*         0x000000002016668a        0x2 
 .text.bdb_task_delay
                0x000000002016668c       0x20 /cygdrive/c/Users/huangli/AppData/Local/Temp/concurrent_sampleLight_b92.elf.60zuQo.ltrans1.ltrans.o
 .text.bdb_commssionUtilityCallback
                0x00000000201666ac        0x2 /cygdrive/c/Users/huangli/AppData/Local/Temp/concurrent_sampleLight_b92.elf.60zuQo.ltrans1.ltrans.o
 *fill*         0x00000000201666ae        0x2 
 .text.ev_timer_nearestUpdate
                0x00000000201666b0       0x26 /cygdrive/c/Users/huangli/AppData/Local/Temp/concurrent_sampleLight_b92.elf.60zuQo.ltrans1.ltrans.o
                0x00000000201666b0                ev_timer_nearestUpdate
 *fill*         0x00000000201666d6        0x2 
 .text.drv_gpio_irq_process.part.0
                0x00000000201666d8       0x22 /cygdrive/c/Users/huangli/AppData/Local/Temp/concurrent_sampleLight_b92.elf.60zuQo.ltrans1.ltrans.o
 *fill*         0x00000000201666fa        0x2 
 .text.drv_gpio_irq_process
                0x00000000201666fc        0xe /cygdrive/c/Users/huangli/AppData/Local/Temp/concurrent_sampleLight_b92.elf.60zuQo.ltrans1.ltrans.o
 *fill*         0x000000002016670a        0x2 
 .text.drv_gpio_irq_handler
                0x000000002016670c        0x6 /cygdrive/c/Users/huangli/AppData/Local/Temp/concurrent_sampleLight_b92.elf.60zuQo.ltrans1.ltrans.o
 *fill*         0x0000000020166712        0x2 
 .text.drv_gpio_irq_risc0_handler
                0x0000000020166714        0x6 /cygdrive/c/Users/huangli/AppData/Local/Temp/concurrent_sampleLight_b92.elf.60zuQo.ltrans1.ltrans.o
 *fill*         0x000000002016671a        0x2 
 .text.drv_gpio_irq_risc1_handler
                0x000000002016671c        0x6 /cygdrive/c/Users/huangli/AppData/Local/Temp/concurrent_sampleLight_b92.elf.60zuQo.ltrans1.ltrans.o
 *fill*         0x0000000020166722        0x2 
 .text.randInit
                0x0000000020166724       0x8e /cygdrive/c/Users/huangli/AppData/Local/Temp/concurrent_sampleLight_b92.elf.60zuQo.ltrans1.ltrans.o
 *fill*         0x00000000201667b2        0x2 
 .text.xcrc32   0x00000000201667b4       0x34 /cygdrive/c/Users/huangli/AppData/Local/Temp/concurrent_sampleLight_b92.elf.60zuQo.ltrans1.ltrans.o
                0x00000000201667b4                xcrc32
 .text.timer_set_cap_tick
                0x00000000201667e8       0x16 /cygdrive/c/Users/huangli/AppData/Local/Temp/concurrent_sampleLight_b92.elf.60zuQo.ltrans1.ltrans.o
 *fill*         0x00000000201667fe        0x2 
 .text.hwTimerStop
                0x0000000020166800       0x22 /cygdrive/c/Users/huangli/AppData/Local/Temp/concurrent_sampleLight_b92.elf.60zuQo.ltrans1.ltrans.o
 *fill*         0x0000000020166822        0x2 
 .text.drv_uart_rx_irq_handler
                0x0000000020166824       0xa2 /cygdrive/c/Users/huangli/AppData/Local/Temp/concurrent_sampleLight_b92.elf.60zuQo.ltrans1.ltrans.o
 *fill*         0x00000000201668c6        0x2 
 .text.uart_dma_send
                0x00000000201668c8       0x84 /cygdrive/c/Users/huangli/AppData/Local/Temp/concurrent_sampleLight_b92.elf.60zuQo.ltrans1.ltrans.o
 .text.gpio_irq_handler
                0x000000002016694c       0x1a /cygdrive/c/Users/huangli/AppData/Local/Temp/concurrent_sampleLight_b92.elf.60zuQo.ltrans1.ltrans.o
 *fill*         0x0000000020166966        0x2 
 .text.gpio_risc0_irq_handler
                0x0000000020166968       0x1a /cygdrive/c/Users/huangli/AppData/Local/Temp/concurrent_sampleLight_b92.elf.60zuQo.ltrans1.ltrans.o
 *fill*         0x0000000020166982        0x2 
 .text.gpio_risc1_irq_handler
                0x0000000020166984       0x1a /cygdrive/c/Users/huangli/AppData/Local/Temp/concurrent_sampleLight_b92.elf.60zuQo.ltrans1.ltrans.o
 *fill*         0x000000002016699e        0x2 
 .text.ldsBdbCommissionSettingParamsUpdate
                0x00000000201669a0       0x5e /cygdrive/c/Users/huangli/AppData/Local/Temp/concurrent_sampleLight_b92.elf.60zuQo.ltrans1.ltrans.o
 *fill*         0x00000000201669fe        0x2 
 .text.spp_onReceiveData
                0x0000000020166a00        0x6 /cygdrive/c/Users/huangli/AppData/Local/Temp/concurrent_sampleLight_b92.elf.60zuQo.ltrans1.ltrans.o
 *fill*         0x0000000020166a06        0x2 
 .text.app_host_event_callback
                0x0000000020166a08        0x6 /cygdrive/c/Users/huangli/AppData/Local/Temp/concurrent_sampleLight_b92.elf.60zuQo.ltrans1.ltrans.o
 *fill*         0x0000000020166a0e        0x2 
 .text.gpCommissioningModeCb
                0x0000000020166a10       0x30 /cygdrive/c/Users/huangli/AppData/Local/Temp/concurrent_sampleLight_b92.elf.60zuQo.ltrans1.ltrans.o
 .text.bdb_nwkDiscCnfCb
                0x0000000020166a40       0x72 /cygdrive/c/Users/huangli/AppData/Local/Temp/concurrent_sampleLight_b92.elf.60zuQo.ltrans1.ltrans.o
 *fill*         0x0000000020166ab2        0x2 
 .text.gpAliasConflictTimeoutCb
                0x0000000020166ab4       0x78 /cygdrive/c/Users/huangli/AppData/Local/Temp/concurrent_sampleLight_b92.elf.60zuQo.ltrans1.ltrans.o
 .text.drv_u32Rand
                0x0000000020166b2c        0xa /cygdrive/c/Users/huangli/AppData/Local/Temp/concurrent_sampleLight_b92.elf.60zuQo.ltrans1.ltrans.o
                0x0000000020166b2c                drv_u32Rand
 *fill*         0x0000000020166b36        0x2 
 .text.uart0_irq_handler
                0x0000000020166b38       0x84 /cygdrive/c/Users/huangli/AppData/Local/Temp/concurrent_sampleLight_b92.elf.60zuQo.ltrans1.ltrans.o
 .text.gpCommissioningWindowTimeoutCb
                0x0000000020166bbc       0x4e /cygdrive/c/Users/huangli/AppData/Local/Temp/concurrent_sampleLight_b92.elf.60zuQo.ltrans1.ltrans.o
 *fill*         0x0000000020166c0a        0x2 
 .text.bdb_binding
                0x0000000020166c0c      0x1c4 /cygdrive/c/Users/huangli/AppData/Local/Temp/concurrent_sampleLight_b92.elf.60zuQo.ltrans1.ltrans.o
 .text.bdb_ieeeAddrResp
                0x0000000020166dd0       0x56 /cygdrive/c/Users/huangli/AppData/Local/Temp/concurrent_sampleLight_b92.elf.60zuQo.ltrans1.ltrans.o
 *fill*         0x0000000020166e26        0x2 
 .text.bdb_simpleDescReqTimeoutCb
                0x0000000020166e28       0x88 /cygdrive/c/Users/huangli/AppData/Local/Temp/concurrent_sampleLight_b92.elf.60zuQo.ltrans1.ltrans.o
 .text.bdb_findBindIdentifyTimeout
                0x0000000020166eb0       0x84 /cygdrive/c/Users/huangli/AppData/Local/Temp/concurrent_sampleLight_b92.elf.60zuQo.ltrans1.ltrans.o
 .text.wd_turn_off_vbus_timer
                0x0000000020166f34       0x12 /cygdrive/c/Users/huangli/AppData/Local/Temp/concurrent_sampleLight_b92.elf.60zuQo.ltrans1.ltrans.o
 *fill*         0x0000000020166f46        0x2 
 .text.usb_get_vbus_detect_status
                0x0000000020166f48       0x1a /cygdrive/c/Users/huangli/AppData/Local/Temp/concurrent_sampleLight_b92.elf.60zuQo.ltrans1.ltrans.o
 *fill*         0x0000000020166f62        0x2 
 .text.drv_vbusWatchdogClose
                0x0000000020166f64       0x66 /cygdrive/c/Users/huangli/AppData/Local/Temp/concurrent_sampleLight_b92.elf.60zuQo.ltrans1.ltrans.o
 *fill*         0x0000000020166fca        0x2 
 .text.internalFlashSizeCheck
                0x0000000020166fcc       0x90 /cygdrive/c/Users/huangli/AppData/Local/Temp/concurrent_sampleLight_b92.elf.60zuQo.ltrans1.ltrans.o
 .text.blc_flash_read_mid_get_vendor_set_capacity
                0x000000002016705c       0x12 /cygdrive/c/Users/huangli/AppData/Local/Temp/concurrent_sampleLight_b92.elf.60zuQo.ltrans1.ltrans.o
 *fill*         0x000000002016706e        0x2 
 .text.platform_wakeup_init
                0x0000000020167070      0x3f6 /cygdrive/c/Users/huangli/AppData/Local/Temp/concurrent_sampleLight_b92.elf.60zuQo.ltrans1.ltrans.o
 *fill*         0x0000000020167466        0x2 
 .text.drv_enable_irq
                0x0000000020167468       0x16 /cygdrive/c/Users/huangli/AppData/Local/Temp/concurrent_sampleLight_b92.elf.60zuQo.ltrans1.ltrans.o
 *fill*         0x000000002016747e        0x2 
 .text.hwTimerSet
                0x0000000020167480       0x22 /cygdrive/c/Users/huangli/AppData/Local/Temp/concurrent_sampleLight_b92.elf.60zuQo.ltrans1.ltrans.o
 *fill*         0x00000000201674a2        0x2 
 .text.sampleLightAttrsStoreTimerCb
                0x00000000201674a4       0x1e /cygdrive/c/Users/huangli/AppData/Local/Temp/concurrent_sampleLight_b92.elf.60zuQo.ltrans1.ltrans.o
 *fill*         0x00000000201674c2        0x2 
 .text.sampleLightSysException
                0x00000000201674c4       0x12 /cygdrive/c/Users/huangli/AppData/Local/Temp/concurrent_sampleLight_b92.elf.60zuQo.ltrans1.ltrans.o
 *fill*         0x00000000201674d6        0x2 
 .text.ldsDeviceInit
                0x00000000201674d8      0x100 /cygdrive/c/Users/huangli/AppData/Local/Temp/concurrent_sampleLight_b92.elf.60zuQo.ltrans1.ltrans.o
 .text.app_gatt_data_handler
                0x00000000201675d8       0xc6 /cygdrive/c/Users/huangli/AppData/Local/Temp/concurrent_sampleLight_b92.elf.60zuQo.ltrans1.ltrans.o
 *fill*         0x000000002016769e        0x2 
 .text.light_adjust
                0x00000000201676a0      0x160 /cygdrive/c/Users/huangli/AppData/Local/Temp/concurrent_sampleLight_b92.elf.60zuQo.ltrans1.ltrans.o
 .text.memcmp   0x0000000020167800       0x28 /cygdrive/c/Users/huangli/AppData/Local/Temp/concurrent_sampleLight_b92.elf.60zuQo.ltrans1.ltrans.o
                0x0000000020167800                memcmp
 .text.blc_initMacAddress
                0x0000000020167828       0xc0 /cygdrive/c/Users/huangli/AppData/Local/Temp/concurrent_sampleLight_b92.elf.60zuQo.ltrans1.ltrans.o
 .text.memset   0x00000000201678e8       0xac /cygdrive/c/Users/huangli/AppData/Local/Temp/concurrent_sampleLight_b92.elf.60zuQo.ltrans1.ltrans.o
                0x00000000201678e8                memset
 .text.gpSecReqPrc
                0x0000000020167994      0x3a2 /cygdrive/c/Users/huangli/AppData/Local/Temp/concurrent_sampleLight_b92.elf.60zuQo.ltrans1.ltrans.o
 *fill*         0x0000000020167d36        0x2 
 .text.ev_buf_reset
                0x0000000020167d38       0xf0 /cygdrive/c/Users/huangli/AppData/Local/Temp/concurrent_sampleLight_b92.elf.60zuQo.ltrans1.ltrans.o
 .text.drv_hwTmr_irq_process
                0x0000000020167e28       0xb6 /cygdrive/c/Users/huangli/AppData/Local/Temp/concurrent_sampleLight_b92.elf.60zuQo.ltrans1.ltrans.o
 *fill*         0x0000000020167ede        0x2 
 .text.timer0_irq_handler
                0x0000000020167ee0       0x1e /cygdrive/c/Users/huangli/AppData/Local/Temp/concurrent_sampleLight_b92.elf.60zuQo.ltrans1.ltrans.o
 *fill*         0x0000000020167efe        0x2 
 .text.timer1_irq_handler
                0x0000000020167f00       0x1e /cygdrive/c/Users/huangli/AppData/Local/Temp/concurrent_sampleLight_b92.elf.60zuQo.ltrans1.ltrans.o
 *fill*         0x0000000020167f1e        0x2 
 .text.aps_groupEntryDel.lto_priv.0
                0x0000000020167f20       0x70 /cygdrive/c/Users/huangli/AppData/Local/Temp/concurrent_sampleLight_b92.elf.60zuQo.ltrans1.ltrans.o
                0x0000000020167f20                aps_groupEntryDel.lto_priv.0
 .text.aps_group_search_by_addr
                0x0000000020167f90       0xbc /cygdrive/c/Users/huangli/AppData/Local/Temp/concurrent_sampleLight_b92.elf.60zuQo.ltrans1.ltrans.o
                0x0000000020167f90                aps_group_search_by_addr
 .text.aps_group_ep_find
                0x000000002016804c       0xb6 /cygdrive/c/Users/huangli/AppData/Local/Temp/concurrent_sampleLight_b92.elf.60zuQo.ltrans1.ltrans.o
                0x000000002016804c                aps_group_ep_find
 *fill*         0x0000000020168102        0x2 
 .text.aps_me_group_add_req
                0x0000000020168104      0x13a /cygdrive/c/Users/huangli/AppData/Local/Temp/concurrent_sampleLight_b92.elf.60zuQo.ltrans1.ltrans.o
                0x0000000020168104                aps_me_group_add_req
 *fill*         0x000000002016823e        0x2 
 .text.af_clsuterIdMatched
                0x0000000020168240       0x5a /cygdrive/c/Users/huangli/AppData/Local/Temp/concurrent_sampleLight_b92.elf.60zuQo.ltrans1.ltrans.o
                0x0000000020168240                af_clsuterIdMatched
 *fill*         0x000000002016829a        0x2 
 .text.ev_rtc_update
                0x000000002016829c      0x204 /cygdrive/c/Users/huangli/AppData/Local/Temp/concurrent_sampleLight_b92.elf.60zuQo.ltrans1.ltrans.o
                0x000000002016829c                ev_rtc_update
 .text.adc_get_voltage_dma.lto_priv.0
                0x00000000201684a0      0x216 /cygdrive/c/Users/huangli/AppData/Local/Temp/concurrent_sampleLight_b92.elf.60zuQo.ltrans1.ltrans.o
                0x00000000201684a0                adc_get_voltage_dma.lto_priv.0
 *fill*         0x00000000201686b6        0x2 
 .text.flash_write
                0x00000000201686b8        0x6 /cygdrive/c/Users/huangli/AppData/Local/Temp/concurrent_sampleLight_b92.elf.60zuQo.ltrans1.ltrans.o
                0x00000000201686b8                flash_write
 *fill*         0x00000000201686be        0x2 
 .text.flash_writeWithCheck
                0x00000000201686c0       0x5c /cygdrive/c/Users/huangli/AppData/Local/Temp/concurrent_sampleLight_b92.elf.60zuQo.ltrans1.ltrans.o
                0x00000000201686c0                flash_writeWithCheck
 .text.nv_write_item
                0x000000002016871c      0x484 /cygdrive/c/Users/huangli/AppData/Local/Temp/concurrent_sampleLight_b92.elf.60zuQo.ltrans1.ltrans.o
 .text.flash_read
                0x0000000020168ba0        0x6 /cygdrive/c/Users/huangli/AppData/Local/Temp/concurrent_sampleLight_b92.elf.60zuQo.ltrans1.ltrans.o
                0x0000000020168ba0                flash_read
 *fill*         0x0000000020168ba6        0x2 
 .text.generateIEEEAddr
                0x0000000020168ba8      0x18a /cygdrive/c/Users/huangli/AppData/Local/Temp/concurrent_sampleLight_b92.elf.60zuQo.ltrans1.ltrans.o
                0x0000000020168ba8                generateIEEEAddr
 *fill*         0x0000000020168d32        0x2 
 .text.drv_calib_freq_offset
                0x0000000020168d34       0x54 /cygdrive/c/Users/huangli/AppData/Local/Temp/concurrent_sampleLight_b92.elf.60zuQo.ltrans1.ltrans.o
 .text.drv_calibration
                0x0000000020168d88       0xaa /cygdrive/c/Users/huangli/AppData/Local/Temp/concurrent_sampleLight_b92.elf.60zuQo.ltrans1.ltrans.o
 *fill*         0x0000000020168e32        0x2 
 .text.ev_on_timer
                0x0000000020168e34       0x7c /cygdrive/c/Users/huangli/AppData/Local/Temp/concurrent_sampleLight_b92.elf.60zuQo.ltrans1.ltrans.o
                0x0000000020168e34                ev_on_timer
 .text.drv_platform_init
                0x0000000020168eb0       0xca /cygdrive/c/Users/huangli/AppData/Local/Temp/concurrent_sampleLight_b92.elf.60zuQo.ltrans1.ltrans.o
 *fill*         0x0000000020168f7a        0x2 
 .text.ev_buf_allocate
                0x0000000020168f7c       0x90 /cygdrive/c/Users/huangli/AppData/Local/Temp/concurrent_sampleLight_b92.elf.60zuQo.ltrans1.ltrans.o
                0x0000000020168f7c                ev_buf_allocate
 .text.gpCommissioningNotificationCmdSend
                0x000000002016900c      0x18a /cygdrive/c/Users/huangli/AppData/Local/Temp/concurrent_sampleLight_b92.elf.60zuQo.ltrans1.ltrans.o
 *fill*         0x0000000020169196        0x2 
 .text.ev_unon_timer
                0x0000000020169198       0xce /cygdrive/c/Users/huangli/AppData/Local/Temp/concurrent_sampleLight_b92.elf.60zuQo.ltrans1.ltrans.o
                0x0000000020169198                ev_unon_timer
 *fill*         0x0000000020169266        0x2 
 .text.bdb_SimpleDescResp
                0x0000000020169268      0x2a2 /cygdrive/c/Users/huangli/AppData/Local/Temp/concurrent_sampleLight_b92.elf.60zuQo.ltrans1.ltrans.o
 *fill*         0x000000002016950a        0x2 
 .text.bdb_nodeDescRespHandler
                0x000000002016950c       0xae /cygdrive/c/Users/huangli/AppData/Local/Temp/concurrent_sampleLight_b92.elf.60zuQo.ltrans1.ltrans.o
 *fill*         0x00000000201695ba        0x2 
 .text.bdb_retrieveTcLinkKeyTimeout
                0x00000000201695bc      0x114 /cygdrive/c/Users/huangli/AppData/Local/Temp/concurrent_sampleLight_b92.elf.60zuQo.ltrans1.ltrans.o
 .text.bdb_touchLinkCallback
                0x00000000201696d0       0xe0 /cygdrive/c/Users/huangli/AppData/Local/Temp/concurrent_sampleLight_b92.elf.60zuQo.ltrans1.ltrans.o
 .text.ev_timer_taskPost
                0x00000000201697b0       0xaa /cygdrive/c/Users/huangli/AppData/Local/Temp/concurrent_sampleLight_b92.elf.60zuQo.ltrans1.ltrans.o
                0x00000000201697b0                ev_timer_taskPost
 *fill*         0x000000002016985a        0x2 
 .text.gpDevAnnceCheckCb
                0x000000002016985c      0x1c6 /cygdrive/c/Users/huangli/AppData/Local/Temp/concurrent_sampleLight_b92.elf.60zuQo.ltrans1.ltrans.o
                0x000000002016985c                gpDevAnnceCheckCb
 *fill*         0x0000000020169a22        0x2 
 .text.gpDataIndPrc
                0x0000000020169a24      0x83a /cygdrive/c/Users/huangli/AppData/Local/Temp/concurrent_sampleLight_b92.elf.60zuQo.ltrans1.ltrans.o
 *fill*         0x000000002016a25e        0x2 
 .text.bdb_simpleDescReqSend
                0x000000002016a260       0xb4 /cygdrive/c/Users/huangli/AppData/Local/Temp/concurrent_sampleLight_b92.elf.60zuQo.ltrans1.ltrans.o
 .text.bdb_retrieveTcLinkKeyStart
                0x000000002016a314       0xc6 /cygdrive/c/Users/huangli/AppData/Local/Temp/concurrent_sampleLight_b92.elf.60zuQo.ltrans1.ltrans.o
 *fill*         0x000000002016a3da        0x2 
 .text.bdb_commissioningFindBind.part.0
                0x000000002016a3dc       0xd4 /cygdrive/c/Users/huangli/AppData/Local/Temp/concurrent_sampleLight_b92.elf.60zuQo.ltrans1.ltrans.o
 .text.bdb_commissioningNetworkFormation
                0x000000002016a4b0      0x194 /cygdrive/c/Users/huangli/AppData/Local/Temp/concurrent_sampleLight_b92.elf.60zuQo.ltrans1.ltrans.o
 .text.app_task
                0x000000002016a644      0x648 /cygdrive/c/Users/huangli/AppData/Local/Temp/concurrent_sampleLight_b92.elf.60zuQo.ltrans1.ltrans.o
 .text.nv_itemLengthCheckAdd
                0x000000002016ac8c       0x6c /cygdrive/c/Users/huangli/AppData/Local/Temp/concurrent_sampleLight_b92.elf.60zuQo.ltrans1.ltrans.o
                0x000000002016ac8c                nv_itemLengthCheckAdd
 .text.nv_index_read_op.lto_priv.0
                0x000000002016acf8      0x148 /cygdrive/c/Users/huangli/AppData/Local/Temp/concurrent_sampleLight_b92.elf.60zuQo.ltrans1.ltrans.o
                0x000000002016acf8                nv_index_read_op.lto_priv.0
 .text.nv_flashReadByIndex
                0x000000002016ae40      0x22c /cygdrive/c/Users/huangli/AppData/Local/Temp/concurrent_sampleLight_b92.elf.60zuQo.ltrans1.ltrans.o
                0x000000002016ae40                nv_flashReadByIndex
 .text.nv_flashWriteNewHandler.lto_priv.0
                0x000000002016b06c      0x70a /cygdrive/c/Users/huangli/AppData/Local/Temp/concurrent_sampleLight_b92.elf.60zuQo.ltrans1.ltrans.o
                0x000000002016b06c                nv_flashWriteNewHandler.lto_priv.0
 *fill*         0x000000002016b776        0x2 
 .text.nv_flashWriteNew
                0x000000002016b778       0x62 /cygdrive/c/Users/huangli/AppData/Local/Temp/concurrent_sampleLight_b92.elf.60zuQo.ltrans1.ltrans.o
                0x000000002016b778                nv_flashWriteNew
 *fill*         0x000000002016b7da        0x2 
 .text.matter_prepare2Jump
                0x000000002016b7dc      0x1a8 /cygdrive/c/Users/huangli/AppData/Local/Temp/concurrent_sampleLight_b92.elf.60zuQo.ltrans1.ltrans.o
 .text.app_controller_event_callback
                0x000000002016b984      0x310 /cygdrive/c/Users/huangli/AppData/Local/Temp/concurrent_sampleLight_b92.elf.60zuQo.ltrans1.ltrans.o
 .text.zcl_gpCb
                0x000000002016bc94      0xc5c /cygdrive/c/Users/huangli/AppData/Local/Temp/concurrent_sampleLight_b92.elf.60zuQo.ltrans1.ltrans.o
 .text.gp_proxyTabSave2Flash
                0x000000002016c8f0       0x44 /cygdrive/c/Users/huangli/AppData/Local/Temp/concurrent_sampleLight_b92.elf.60zuQo.ltrans1.ltrans.o
 .text.aps_groupTblSave2Flash
                0x000000002016c934       0x3e /cygdrive/c/Users/huangli/AppData/Local/Temp/concurrent_sampleLight_b92.elf.60zuQo.ltrans1.ltrans.o
                0x000000002016c934                aps_groupTblSave2Flash
 *fill*         0x000000002016c972        0x2 
 .text.nv_flashReadNew
                0x000000002016c974       0xf6 /cygdrive/c/Users/huangli/AppData/Local/Temp/concurrent_sampleLight_b92.elf.60zuQo.ltrans1.ltrans.o
                0x000000002016c974                nv_flashReadNew
 *fill*         0x000000002016ca6a        0x2 
 .text.bdb_zdoStartDevCnf
                0x000000002016ca6c      0x31a /cygdrive/c/Users/huangli/AppData/Local/Temp/concurrent_sampleLight_b92.elf.60zuQo.ltrans1.ltrans.o
 *fill*         0x000000002016cd86        0x2 
 .text.nv_nwkFrameCountSaveToFlashHandler
                0x000000002016cd88      0x246 /cygdrive/c/Users/huangli/AppData/Local/Temp/concurrent_sampleLight_b92.elf.60zuQo.ltrans1.ltrans.o
                0x000000002016cd88                nv_nwkFrameCountSaveToFlashHandler
 *fill*         0x000000002016cfce        0x2 
 .text.bdb_commissioningInfoSave
                0x000000002016cfd0       0xbc /cygdrive/c/Users/huangli/AppData/Local/Temp/concurrent_sampleLight_b92.elf.60zuQo.ltrans1.ltrans.o
 .text.bdb_mgmtPermitJoiningConfirm
                0x000000002016d08c      0x13a /cygdrive/c/Users/huangli/AppData/Local/Temp/concurrent_sampleLight_b92.elf.60zuQo.ltrans1.ltrans.o
 *fill*         0x000000002016d1c6        0x2 
 .text.nv_facrotyNewRstFlagCheck
                0x000000002016d1c8       0x2a /cygdrive/c/Users/huangli/AppData/Local/Temp/concurrent_sampleLight_b92.elf.60zuQo.ltrans1.ltrans.o
                0x000000002016d1c8                nv_facrotyNewRstFlagCheck
 *fill*         0x000000002016d1f2        0x2 
 .text.nv_facrotyNewRstFlagSet
                0x000000002016d1f4       0x24 /cygdrive/c/Users/huangli/AppData/Local/Temp/concurrent_sampleLight_b92.elf.60zuQo.ltrans1.ltrans.o
                0x000000002016d1f4                nv_facrotyNewRstFlagSet
 .text.strcpy   0x000000002016d218       0x16 /cygdrive/c/Users/huangli/AppData/Local/Temp/concurrent_sampleLight_b92.elf.60zuQo.ltrans1.ltrans.o
                0x000000002016d218                strcpy
 *fill*         0x000000002016d22e        0x2 
 .text._write   0x000000002016d230       0x4c /cygdrive/c/Users/huangli/AppData/Local/Temp/concurrent_sampleLight_b92.elf.60zuQo.ltrans1.ltrans.o
                0x000000002016d230                _write
 .text.startup.main
                0x000000002016d27c     0x1216 /cygdrive/c/Users/huangli/AppData/Local/Temp/concurrent_sampleLight_b92.elf.60zuQo.ltrans1.ltrans.o
                0x000000002016d27c                main
 *fill*         0x000000002016e492        0x2 
 .text.sampleLightAttrsStoreTimerStart
                0x000000002016e494       0x3a /cygdrive/c/Users/huangli/AppData/Local/Temp/concurrent_sampleLight_b92.elf.60zuQo.ltrans1.ltrans.o
                0x000000002016e494                sampleLightAttrsStoreTimerStart
 *fill*         0x000000002016e4ce        0x2 
 .text.ldsZigbeeTxPowerSet
                0x000000002016e4d0       0x62 /cygdrive/c/Users/huangli/AppData/Local/Temp/concurrent_sampleLight_b92.elf.60zuQo.ltrans1.ltrans.o
                0x000000002016e4d0                ldsZigbeeTxPowerSet
 *fill*         0x000000002016e532        0x2 
 .text.bdb_task.lto_priv.0
                0x000000002016e534      0x5e4 /cygdrive/c/Users/huangli/AppData/Local/Temp/concurrent_sampleLight_b92.elf.60zuQo.ltrans1.ltrans.o
                0x000000002016e534                bdb_task.lto_priv.0
 .text.zbdemo_bdbIdentifyCb
                0x000000002016eb18        0x2 /cygdrive/c/Users/huangli/AppData/Local/Temp/concurrent_sampleLight_b92.elf.60zuQo.ltrans2.ltrans.o
                0x000000002016eb18                zbdemo_bdbIdentifyCb
 *fill*         0x000000002016eb1a        0x2 
 .text.sampleLight_recoveryStart
                0x000000002016eb1c        0x6 /cygdrive/c/Users/huangli/AppData/Local/Temp/concurrent_sampleLight_b92.elf.60zuQo.ltrans2.ltrans.o
                0x000000002016eb1c                sampleLight_recoveryStart
 *fill*         0x000000002016eb22        0x2 
 .text.sampleLight_leaveIndHandler
                0x000000002016eb24        0x2 /cygdrive/c/Users/huangli/AppData/Local/Temp/concurrent_sampleLight_b92.elf.60zuQo.ltrans2.ltrans.o
                0x000000002016eb24                sampleLight_leaveIndHandler
 *fill*         0x000000002016eb26        0x2 
 .text.sampleLight_nwkUpdateIndicateHandler
                0x000000002016eb28        0x6 /cygdrive/c/Users/huangli/AppData/Local/Temp/concurrent_sampleLight_b92.elf.60zuQo.ltrans2.ltrans.o
                0x000000002016eb28                sampleLight_nwkUpdateIndicateHandler
 *fill*         0x000000002016eb2e        0x2 
 .text.sampleLight_zclIdentifyTimerCb
                0x000000002016eb30       0x1c /cygdrive/c/Users/huangli/AppData/Local/Temp/concurrent_sampleLight_b92.elf.60zuQo.ltrans2.ltrans.o
 .text.sampleLight_basicCb
                0x000000002016eb4c        0x6 /cygdrive/c/Users/huangli/AppData/Local/Temp/concurrent_sampleLight_b92.elf.60zuQo.ltrans2.ltrans.o
                0x000000002016eb4c                sampleLight_basicCb
 *fill*         0x000000002016eb52        0x2 
 .text.blt_ll_getMaxAalCentralNumber
                0x000000002016eb54        0x6 /cygdrive/c/Users/huangli/AppData/Local/Temp/concurrent_sampleLight_b92.elf.60zuQo.ltrans2.ltrans.o
 *fill*         0x000000002016eb5a        0x2 
 .text.blt_acl_slave_mainloop_task
                0x000000002016eb5c        0x6 /cygdrive/c/Users/huangli/AppData/Local/Temp/concurrent_sampleLight_b92.elf.60zuQo.ltrans2.ltrans.o
 *fill*         0x000000002016eb62        0x2 
 .text.blt_ll_reset_leg_adv
                0x000000002016eb64       0x32 /cygdrive/c/Users/huangli/AppData/Local/Temp/concurrent_sampleLight_b92.elf.60zuQo.ltrans2.ltrans.o
 *fill*         0x000000002016eb96        0x2 
 .text.l2cap_att_search
                0x000000002016eb98       0xa4 /cygdrive/c/Users/huangli/AppData/Local/Temp/concurrent_sampleLight_b92.elf.60zuQo.ltrans2.ltrans.o
 .text.blc_att_requestMtuSizeExchange
                0x000000002016ec3c       0x6e /cygdrive/c/Users/huangli/AppData/Local/Temp/concurrent_sampleLight_b92.elf.60zuQo.ltrans2.ltrans.o
 *fill*         0x000000002016ecaa        0x2 
 .text.att_Find_end_group
                0x000000002016ecac       0x8c /cygdrive/c/Users/huangli/AppData/Local/Temp/concurrent_sampleLight_b92.elf.60zuQo.ltrans2.ltrans.o
 .text.att_find_by_type_value_search
                0x000000002016ed38       0xd6 /cygdrive/c/Users/huangli/AppData/Local/Temp/concurrent_sampleLight_b92.elf.60zuQo.ltrans2.ltrans.o
 *fill*         0x000000002016ee0e        0x2 
 .text.att_read_by_group_type_request_search
                0x000000002016ee10       0xdc /cygdrive/c/Users/huangli/AppData/Local/Temp/concurrent_sampleLight_b92.elf.60zuQo.ltrans2.ltrans.o
 .text.blt_gatt_requestServiceAccess
                0x000000002016eeec       0x6c /cygdrive/c/Users/huangli/AppData/Local/Temp/concurrent_sampleLight_b92.elf.60zuQo.ltrans2.ltrans.o
 .text.softTimer_getTimerValue
                0x000000002016ef58        0x6 /cygdrive/c/Users/huangli/AppData/Local/Temp/concurrent_sampleLight_b92.elf.60zuQo.ltrans2.ltrans.o
 *fill*         0x000000002016ef5e        0x2 
 .text.blt_gap_ble_hci_rever_handler
                0x000000002016ef60        0x6 /cygdrive/c/Users/huangli/AppData/Local/Temp/concurrent_sampleLight_b92.elf.60zuQo.ltrans2.ltrans.o
 *fill*         0x000000002016ef66        0x2 
 .text.blt_smp_llEncryptionPause
                0x000000002016ef68       0x12 /cygdrive/c/Users/huangli/AppData/Local/Temp/concurrent_sampleLight_b92.elf.60zuQo.ltrans2.ltrans.o
 *fill*         0x000000002016ef7a        0x2 
 .text.spList_insertNode
                0x000000002016ef7c       0x88 /cygdrive/c/Users/huangli/AppData/Local/Temp/concurrent_sampleLight_b92.elf.60zuQo.ltrans2.ltrans.o
 .text.blt_l2cap_get_s_tx_buff
                0x000000002016f004       0x24 /cygdrive/c/Users/huangli/AppData/Local/Temp/concurrent_sampleLight_b92.elf.60zuQo.ltrans2.ltrans.o
 .text.blm_l2cap_processConnParamUpdatePending
                0x000000002016f028       0x2e /cygdrive/c/Users/huangli/AppData/Local/Temp/concurrent_sampleLight_b92.elf.60zuQo.ltrans2.ltrans.o
 *fill*         0x000000002016f056        0x2 
 .text.blt_l2cap_para_pre_init
                0x000000002016f058       0x54 /cygdrive/c/Users/huangli/AppData/Local/Temp/concurrent_sampleLight_b92.elf.60zuQo.ltrans2.ltrans.o
 .text.matterCommissionTimeoutCb
                0x000000002016f0ac       0x66 /cygdrive/c/Users/huangli/AppData/Local/Temp/concurrent_sampleLight_b92.elf.60zuQo.ltrans2.ltrans.o
 *fill*         0x000000002016f112        0x2 
 .text.sampleLight_bdbNetworkSteerStart
                0x000000002016f114       0x5c /cygdrive/c/Users/huangli/AppData/Local/Temp/concurrent_sampleLight_b92.elf.60zuQo.ltrans2.ltrans.o
 .text.sampleLight_leaveCnfHandler.part.0
                0x000000002016f170       0xac /cygdrive/c/Users/huangli/AppData/Local/Temp/concurrent_sampleLight_b92.elf.60zuQo.ltrans2.ltrans.o
 .text.sampleLight_leaveCnfHandler
                0x000000002016f21c        0xc /cygdrive/c/Users/huangli/AppData/Local/Temp/concurrent_sampleLight_b92.elf.60zuQo.ltrans2.ltrans.o
                0x000000002016f21c                sampleLight_leaveCnfHandler
 .text.sampleLight_OnWithTimedOffTimerCb
                0x000000002016f228       0xac /cygdrive/c/Users/huangli/AppData/Local/Temp/concurrent_sampleLight_b92.elf.60zuQo.ltrans2.ltrans.o
 .text.ldsLightCurrentSceneIndexGet
                0x000000002016f2d4       0x9e /cygdrive/c/Users/huangli/AppData/Local/Temp/concurrent_sampleLight_b92.elf.60zuQo.ltrans2.ltrans.o
 *fill*         0x000000002016f372        0x2 
 .text.sampleLight_zclProcessIncomingMsg
                0x000000002016f374      0x2a4 /cygdrive/c/Users/huangli/AppData/Local/Temp/concurrent_sampleLight_b92.elf.60zuQo.ltrans2.ltrans.o
                0x000000002016f374                sampleLight_zclProcessIncomingMsg
 .text.ldsZclIdentifyLightEffectTimerCb
                0x000000002016f618       0x9a /cygdrive/c/Users/huangli/AppData/Local/Temp/concurrent_sampleLight_b92.elf.60zuQo.ltrans2.ltrans.o
 *fill*         0x000000002016f6b2        0x2 
 .text.sampleLight_identifyCb
                0x000000002016f6b4      0x1f4 /cygdrive/c/Users/huangli/AppData/Local/Temp/concurrent_sampleLight_b92.elf.60zuQo.ltrans2.ltrans.o
                0x000000002016f6b4                sampleLight_identifyCb
 .text.sampleLight_groupCb
                0x000000002016f8a8      0x11a /cygdrive/c/Users/huangli/AppData/Local/Temp/concurrent_sampleLight_b92.elf.60zuQo.ltrans2.ltrans.o
                0x000000002016f8a8                sampleLight_groupCb
 *fill*         0x000000002016f9c2        0x2 
 .text.ldsSyncSceneIdInformation
                0x000000002016f9c4       0x56 /cygdrive/c/Users/huangli/AppData/Local/Temp/concurrent_sampleLight_b92.elf.60zuQo.ltrans2.ltrans.o
 *fill*         0x000000002016fa1a        0x2 
 .text.sampleLight_lightNumCheckTimerCb
                0x000000002016fa1c      0x15e /cygdrive/c/Users/huangli/AppData/Local/Temp/concurrent_sampleLight_b92.elf.60zuQo.ltrans2.ltrans.o
 *fill*         0x000000002016fb7a        0x2 
 .text.ldsMoveTemperatureOrMoveColor
                0x000000002016fb7c       0x7c /cygdrive/c/Users/huangli/AppData/Local/Temp/concurrent_sampleLight_b92.elf.60zuQo.ltrans2.ltrans.o
 .text.ikea_sceneTimerCb
                0x000000002016fbf8       0x7e /cygdrive/c/Users/huangli/AppData/Local/Temp/concurrent_sampleLight_b92.elf.60zuQo.ltrans2.ltrans.o
 *fill*         0x000000002016fc76        0x2 
 .text.factoryRst_timerCb.lto_priv.0
                0x000000002016fc78      0x11c /cygdrive/c/Users/huangli/AppData/Local/Temp/concurrent_sampleLight_b92.elf.60zuQo.ltrans2.ltrans.o
                0x000000002016fc78                factoryRst_timerCb.lto_priv.0
 .text.blt_acl_conn_mainloop_task
                0x000000002016fd94      0x272 /cygdrive/c/Users/huangli/AppData/Local/Temp/concurrent_sampleLight_b92.elf.60zuQo.ltrans2.ltrans.o
                0x000000002016fd94                blt_acl_conn_mainloop_task
 *fill*         0x0000000020170006        0x2 
 .text.blt_ll_resolvGenerateRpa
                0x0000000020170008       0x7a /cygdrive/c/Users/huangli/AppData/Local/Temp/concurrent_sampleLight_b92.elf.60zuQo.ltrans2.ltrans.o
 *fill*         0x0000000020170082        0x2 
 .text.blt_signal_proc_connParamUpdateReq
                0x0000000020170084      0x112 /cygdrive/c/Users/huangli/AppData/Local/Temp/concurrent_sampleLight_b92.elf.60zuQo.ltrans2.ltrans.o
 *fill*         0x0000000020170196        0x2 
 .text.blt_signal_proc_connParamUpdateRsp
                0x0000000020170198       0x40 /cygdrive/c/Users/huangli/AppData/Local/Temp/concurrent_sampleLight_b92.elf.60zuQo.ltrans2.ltrans.o
 .text.blt_gap_ll_enc_done_handler
                0x00000000201701d8      0x144 /cygdrive/c/Users/huangli/AppData/Local/Temp/concurrent_sampleLight_b92.elf.60zuQo.ltrans2.ltrans.o
 .text.free_nonreten
                0x000000002017031c       0x12 /cygdrive/c/Users/huangli/AppData/Local/Temp/concurrent_sampleLight_b92.elf.60zuQo.ltrans2.ltrans.o
 *fill*         0x000000002017032e        0x2 
 .text.blt_gattc_clearAttr
                0x0000000020170330       0xac /cygdrive/c/Users/huangli/AppData/Local/Temp/concurrent_sampleLight_b92.elf.60zuQo.ltrans2.ltrans.o
 .text.blt_gattc_aclStateChangeCb
                0x00000000201703dc        0xe /cygdrive/c/Users/huangli/AppData/Local/Temp/concurrent_sampleLight_b92.elf.60zuQo.ltrans2.ltrans.o
 *fill*         0x00000000201703ea        0x2 
 .text.blt_gattc_attRequestTimerCb
                0x00000000201703ec       0x32 /cygdrive/c/Users/huangli/AppData/Local/Temp/concurrent_sampleLight_b92.elf.60zuQo.ltrans2.ltrans.o
 *fill*         0x000000002017041e        0x2 
 .text.blt_l2cap_processConnParamUpdateReq
                0x0000000020170420       0x5a /cygdrive/c/Users/huangli/AppData/Local/Temp/concurrent_sampleLight_b92.elf.60zuQo.ltrans2.ltrans.o
 *fill*         0x000000002017047a        0x2 
 .text.ldsColorAttributeChangeHandle
                0x000000002017047c       0x6e /cygdrive/c/Users/huangli/AppData/Local/Temp/concurrent_sampleLight_b92.elf.60zuQo.ltrans2.ltrans.o
                0x000000002017047c                ldsColorAttributeChangeHandle
 *fill*         0x00000000201704ea        0x2 
 .text.sampleLight_colorTimerEvtCb.lto_priv.0
                0x00000000201704ec      0x202 /cygdrive/c/Users/huangli/AppData/Local/Temp/concurrent_sampleLight_b92.elf.60zuQo.ltrans2.ltrans.o
                0x00000000201704ec                sampleLight_colorTimerEvtCb.lto_priv.0
 *fill*         0x00000000201706ee        0x2 
 .text.sampleLight_colorCtrlCb
                0x00000000201706f0      0x42a /cygdrive/c/Users/huangli/AppData/Local/Temp/concurrent_sampleLight_b92.elf.60zuQo.ltrans2.ltrans.o
                0x00000000201706f0                sampleLight_colorCtrlCb
 *fill*         0x0000000020170b1a        0x2 
 .text.sampleLight_coupleColorTemp.lto_priv.0
                0x0000000020170b1c       0x40 /cygdrive/c/Users/huangli/AppData/Local/Temp/concurrent_sampleLight_b92.elf.60zuQo.ltrans2.ltrans.o
                0x0000000020170b1c                sampleLight_coupleColorTemp.lto_priv.0
 .text.sampleLight_levelTimerEvtCb.lto_priv.0
                0x0000000020170b5c      0x134 /cygdrive/c/Users/huangli/AppData/Local/Temp/concurrent_sampleLight_b92.elf.60zuQo.ltrans2.ltrans.o
                0x0000000020170b5c                sampleLight_levelTimerEvtCb.lto_priv.0
 .text.sampleLight_levelCb
                0x0000000020170c90      0x2a0 /cygdrive/c/Users/huangli/AppData/Local/Temp/concurrent_sampleLight_b92.elf.60zuQo.ltrans2.ltrans.o
                0x0000000020170c90                sampleLight_levelCb
 .text.sampleLight_onOffUpdate
                0x0000000020170f30       0x76 /cygdrive/c/Users/huangli/AppData/Local/Temp/concurrent_sampleLight_b92.elf.60zuQo.ltrans2.ltrans.o
                0x0000000020170f30                sampleLight_onOffUpdate
 *fill*         0x0000000020170fa6        0x2 
 .text.sampleLight_onOffCb
                0x0000000020170fa8      0x176 /cygdrive/c/Users/huangli/AppData/Local/Temp/concurrent_sampleLight_b92.elf.60zuQo.ltrans2.ltrans.o
                0x0000000020170fa8                sampleLight_onOffCb
 *fill*         0x000000002017111e        0x2 
 .text.sampleLight_sceneCb
                0x0000000020171120      0x3bc /cygdrive/c/Users/huangli/AppData/Local/Temp/concurrent_sampleLight_b92.elf.60zuQo.ltrans2.ltrans.o
                0x0000000020171120                sampleLight_sceneCb
 .text.blt_signal_proc_cmdRejectRsp
                0x00000000201714dc        0x6 /cygdrive/c/Users/huangli/AppData/Local/Temp/concurrent_sampleLight_b92.elf.60zuQo.ltrans2.ltrans.o
 *fill*         0x00000000201714e2        0x2 
 .text.ldsLightStatusGetSceneId
                0x00000000201714e4       0xc6 /cygdrive/c/Users/huangli/AppData/Local/Temp/concurrent_sampleLight_b92.elf.60zuQo.ltrans2.ltrans.o
                0x00000000201714e4                ldsLightStatusGetSceneId
 *fill*         0x00000000201715aa        0x2 
 .text.lds_trigger_join_network_flag_get
                0x00000000201715ac       0x24 /cygdrive/c/Users/huangli/AppData/Local/Temp/concurrent_sampleLight_b92.elf.60zuQo.ltrans2.ltrans.o
                0x00000000201715ac                lds_trigger_join_network_flag_get
 .text.zbdemo_bdbInitCb
                0x00000000201715d0      0x122 /cygdrive/c/Users/huangli/AppData/Local/Temp/concurrent_sampleLight_b92.elf.60zuQo.ltrans2.ltrans.o
                0x00000000201715d0                zbdemo_bdbInitCb
 *fill*         0x00000000201716f2        0x2 
 .text.zbdemo_bdbCommissioningCb
                0x00000000201716f4      0x104 /cygdrive/c/Users/huangli/AppData/Local/Temp/concurrent_sampleLight_b92.elf.60zuQo.ltrans2.ltrans.o
                0x00000000201716f4                zbdemo_bdbCommissioningCb
 .text.blt_ll_legadv_direct_adv_timeout
                0x00000000201717f8      0x104 /cygdrive/c/Users/huangli/AppData/Local/Temp/concurrent_sampleLight_b92.elf.60zuQo.ltrans2.ltrans.o
 .text.blt_smp_setAddress
                0x00000000201718fc      0x356 /cygdrive/c/Users/huangli/AppData/Local/Temp/concurrent_sampleLight_b92.elf.60zuQo.ltrans2.ltrans.o
                0x00000000201718fc                blt_smp_setAddress
 *fill*         0x0000000020171c52        0x2 
 .text.crc16    0x0000000020171c54       0x38 /cygdrive/c/Users/huangli/AppData/Local/Temp/concurrent_sampleLight_b92.elf.60zuQo.ltrans2.ltrans.o
                0x0000000020171c54                crc16
 .text.blc_ll_isBleTaskIdle
                0x0000000020171c8c       0x18 /cygdrive/c/Users/huangli/AppData/Local/Temp/concurrent_sampleLight_b92.elf.60zuQo.ltrans2.ltrans.o
                0x0000000020171c8c                blc_ll_isBleTaskIdle
 .text.ble_radio_init
                0x0000000020171ca4       0x60 /cygdrive/c/Users/huangli/AppData/Local/Temp/concurrent_sampleLight_b92.elf.60zuQo.ltrans2.ltrans.o
                0x0000000020171ca4                ble_radio_init
 .text.blt_acl_conn_rx_fifo_proc
                0x0000000020171d04       0x8c /cygdrive/c/Users/huangli/AppData/Local/Temp/concurrent_sampleLight_b92.elf.60zuQo.ltrans2.ltrans.o
                0x0000000020171d04                blt_acl_conn_rx_fifo_proc
 .text.blt_ll_processFeatureExchange
                0x0000000020171d90       0xec /cygdrive/c/Users/huangli/AppData/Local/Temp/concurrent_sampleLight_b92.elf.60zuQo.ltrans2.ltrans.o
                0x0000000020171d90                blt_ll_processFeatureExchange
 .text.blt_llmsPushLlCtrlPkt
                0x0000000020171e7c       0x22 /cygdrive/c/Users/huangli/AppData/Local/Temp/concurrent_sampleLight_b92.elf.60zuQo.ltrans2.ltrans.o
                0x0000000020171e7c                blt_llmsPushLlCtrlPkt
 *fill*         0x0000000020171e9e        0x2 
 .text.blt_llms_rejectInd
                0x0000000020171ea0       0x58 /cygdrive/c/Users/huangli/AppData/Local/Temp/concurrent_sampleLight_b92.elf.60zuQo.ltrans2.ltrans.o
                0x0000000020171ea0                blt_llms_rejectInd
 .text.blc_ll_getConnectionStartTick
                0x0000000020171ef8       0x16 /cygdrive/c/Users/huangli/AppData/Local/Temp/concurrent_sampleLight_b92.elf.60zuQo.ltrans2.ltrans.o
                0x0000000020171ef8                blc_ll_getConnectionStartTick
 *fill*         0x0000000020171f0e        0x2 
 .text.blt_ll_isAclhdlInvalid
                0x0000000020171f10       0x3a /cygdrive/c/Users/huangli/AppData/Local/Temp/concurrent_sampleLight_b92.elf.60zuQo.ltrans2.ltrans.o
                0x0000000020171f10                blt_ll_isAclhdlInvalid
 *fill*         0x0000000020171f4a        0x2 
 .text.blt_gattc_mtuSizeExchangeReq
                0x0000000020171f4c       0xa8 /cygdrive/c/Users/huangli/AppData/Local/Temp/concurrent_sampleLight_b92.elf.60zuQo.ltrans2.ltrans.o
 .text.blt_ll_rspTimeoutLoopEvt
                0x0000000020171ff4       0x3a /cygdrive/c/Users/huangli/AppData/Local/Temp/concurrent_sampleLight_b92.elf.60zuQo.ltrans2.ltrans.o
                0x0000000020171ff4                blt_ll_rspTimeoutLoopEvt
 *fill*         0x000000002017202e        0x2 
 .text.blt_ll_setEncryptionBusy
                0x0000000020172030       0x16 /cygdrive/c/Users/huangli/AppData/Local/Temp/concurrent_sampleLight_b92.elf.60zuQo.ltrans2.ltrans.o
                0x0000000020172030                blt_ll_setEncryptionBusy
 *fill*         0x0000000020172046        0x2 
 .text.blt_ll_isEncryptionBusy
                0x0000000020172048       0x16 /cygdrive/c/Users/huangli/AppData/Local/Temp/concurrent_sampleLight_b92.elf.60zuQo.ltrans2.ltrans.o
                0x0000000020172048                blt_ll_isEncryptionBusy
 *fill*         0x000000002017205e        0x2 
 .text.blt_ll_procDlePending
                0x0000000020172060       0x80 /cygdrive/c/Users/huangli/AppData/Local/Temp/concurrent_sampleLight_b92.elf.60zuQo.ltrans2.ltrans.o
                0x0000000020172060                blt_ll_procDlePending
 .text.blt_att_procMtuExgPending
                0x00000000201720e0       0xa8 /cygdrive/c/Users/huangli/AppData/Local/Temp/concurrent_sampleLight_b92.elf.60zuQo.ltrans2.ltrans.o
 .text.blc_ll_initAclPeriphrRole_module
                0x0000000020172188       0x6a /cygdrive/c/Users/huangli/AppData/Local/Temp/concurrent_sampleLight_b92.elf.60zuQo.ltrans2.ltrans.o
                0x0000000020172188                blc_ll_initAclPeriphrRole_module
 *fill*         0x00000000201721f2        0x2 
 .text.blt_ll_sendPhyReq
                0x00000000201721f4       0x72 /cygdrive/c/Users/huangli/AppData/Local/Temp/concurrent_sampleLight_b92.elf.60zuQo.ltrans2.ltrans.o
                0x00000000201721f4                blt_ll_sendPhyReq
 *fill*         0x0000000020172266        0x2 
 .text.blt_ll_sendPhyUpdateInd
                0x0000000020172268      0x102 /cygdrive/c/Users/huangli/AppData/Local/Temp/concurrent_sampleLight_b92.elf.60zuQo.ltrans2.ltrans.o
                0x0000000020172268                blt_ll_sendPhyUpdateInd
 *fill*         0x000000002017236a        0x2 
 .text.blt_ll_resolvRefreshRpa
                0x000000002017236c       0x5e /cygdrive/c/Users/huangli/AppData/Local/Temp/concurrent_sampleLight_b92.elf.60zuQo.ltrans2.ltrans.o
                0x000000002017236c                blt_ll_resolvRefreshRpa
 *fill*         0x00000000201723ca        0x2 
 .text.blc_gap_getMasterSlavePara
                0x00000000201723cc       0x18 /cygdrive/c/Users/huangli/AppData/Local/Temp/concurrent_sampleLight_b92.elf.60zuQo.ltrans2.ltrans.o
                0x00000000201723cc                blc_gap_getMasterSlavePara
 .text.blt_gap_conn_complete_handler
                0x00000000201723e4       0x78 /cygdrive/c/Users/huangli/AppData/Local/Temp/concurrent_sampleLight_b92.elf.60zuQo.ltrans2.ltrans.o
 .text.blt_gap_conn_terminate_handler
                0x000000002017245c       0xd2 /cygdrive/c/Users/huangli/AppData/Local/Temp/concurrent_sampleLight_b92.elf.60zuQo.ltrans2.ltrans.o
 *fill*         0x000000002017252e        0x2 
 .text.bls_gap_getSlavePara
                0x0000000020172530       0x12 /cygdrive/c/Users/huangli/AppData/Local/Temp/concurrent_sampleLight_b92.elf.60zuQo.ltrans2.ltrans.o
                0x0000000020172530                bls_gap_getSlavePara
 *fill*         0x0000000020172542        0x2 
 .text.blc_gap_init
                0x0000000020172544       0x66 /cygdrive/c/Users/huangli/AppData/Local/Temp/concurrent_sampleLight_b92.elf.60zuQo.ltrans2.ltrans.o
                0x0000000020172544                blc_gap_init
 *fill*         0x00000000201725aa        0x2 
 .text.blt_l2cap_pushData_2_controller
                0x00000000201725ac      0x230 /cygdrive/c/Users/huangli/AppData/Local/Temp/concurrent_sampleLight_b92.elf.60zuQo.ltrans2.ltrans.o
                0x00000000201725ac                blt_l2cap_pushData_2_controller
 .text.blt_process_pendingPkt
                0x00000000201727dc       0x3c /cygdrive/c/Users/huangli/AppData/Local/Temp/concurrent_sampleLight_b92.elf.60zuQo.ltrans2.ltrans.o
 .text.blt_smp_pushPairingFailed
                0x0000000020172818       0x1e /cygdrive/c/Users/huangli/AppData/Local/Temp/concurrent_sampleLight_b92.elf.60zuQo.ltrans2.ltrans.o
                0x0000000020172818                blt_smp_pushPairingFailed
 *fill*         0x0000000020172836        0x2 
 .text.bls_att_l2capAttCmdHandler
                0x0000000020172838      0xb58 /cygdrive/c/Users/huangli/AppData/Local/Temp/concurrent_sampleLight_b92.elf.60zuQo.ltrans2.ltrans.o
 .text.blc_l2cap_pktHandler
                0x0000000020173390      0x3ce /cygdrive/c/Users/huangli/AppData/Local/Temp/concurrent_sampleLight_b92.elf.60zuQo.ltrans2.ltrans.o
                0x0000000020173390                blc_l2cap_pktHandler
 *fill*         0x000000002017375e        0x2 
 .text.bls_smp_llGetLtkReq
                0x0000000020173760      0x3c6 /cygdrive/c/Users/huangli/AppData/Local/Temp/concurrent_sampleLight_b92.elf.60zuQo.ltrans2.ltrans.o
                0x0000000020173760                bls_smp_llGetLtkReq
 *fill*         0x0000000020173b26        0x2 
 .text.blc_ll_initBasicMCU
                0x0000000020173b28       0xa6 /cygdrive/c/Users/huangli/AppData/Local/Temp/concurrent_sampleLight_b92.elf.60zuQo.ltrans2.ltrans.o
                0x0000000020173b28                blc_ll_initBasicMCU
 *fill*         0x0000000020173bce        0x2 
 .text.blt_ll_reset_bSlot_idx
                0x0000000020173bd0       0xa6 /cygdrive/c/Users/huangli/AppData/Local/Temp/concurrent_sampleLight_b92.elf.60zuQo.ltrans2.ltrans.o
 *fill*         0x0000000020173c76        0x2 
 .text.blt_ll_proc_bSlot_idx_overflow
                0x0000000020173c78       0x2c /cygdrive/c/Users/huangli/AppData/Local/Temp/concurrent_sampleLight_b92.elf.60zuQo.ltrans2.ltrans.o
 .text.blc_sdk_main_loop
                0x0000000020173ca4       0xda /cygdrive/c/Users/huangli/AppData/Local/Temp/concurrent_sampleLight_b92.elf.60zuQo.ltrans2.ltrans.o
                0x0000000020173ca4                blc_sdk_main_loop
 *fill*         0x0000000020173d7e        0x2 
 .text.blt_llms_pushTxfifo
                0x0000000020173d80      0x22a /cygdrive/c/Users/huangli/AppData/Local/Temp/concurrent_sampleLight_b92.elf.60zuQo.ltrans2.ltrans.o
                0x0000000020173d80                blt_llms_pushTxfifo
 *fill*         0x0000000020173faa        0x2 
 .text.blt_ll_getRealTxFifoNumber
                0x0000000020173fac       0x40 /cygdrive/c/Users/huangli/AppData/Local/Temp/concurrent_sampleLight_b92.elf.60zuQo.ltrans2.ltrans.o
 .text.blt_ll_smpSecurityProc
                0x0000000020173fec      0x176 /cygdrive/c/Users/huangli/AppData/Local/Temp/concurrent_sampleLight_b92.elf.60zuQo.ltrans2.ltrans.o
                0x0000000020173fec                blt_ll_smpSecurityProc
 *fill*         0x0000000020174162        0x2 
 .text.blt_smp_proc_pairing_loop
                0x0000000020174164      0x29e /cygdrive/c/Users/huangli/AppData/Local/Temp/concurrent_sampleLight_b92.elf.60zuQo.ltrans2.ltrans.o
 *fill*         0x0000000020174402        0x2 
 .text.blt_gap_mainloop
                0x0000000020174404      0x27a /cygdrive/c/Users/huangli/AppData/Local/Temp/concurrent_sampleLight_b92.elf.60zuQo.ltrans2.ltrans.o
 *fill*         0x000000002017467e        0x2 
 .text.blc_ll_setAdvEnable
                0x0000000020174680      0x152 /cygdrive/c/Users/huangli/AppData/Local/Temp/concurrent_sampleLight_b92.elf.60zuQo.ltrans2.ltrans.o
                0x0000000020174680                blc_ll_setAdvEnable
 *fill*         0x00000000201747d2        0x2 
 .text.blt_leg_adv_mainloop_task
                0x00000000201747d4       0x66 /cygdrive/c/Users/huangli/AppData/Local/Temp/concurrent_sampleLight_b92.elf.60zuQo.ltrans2.ltrans.o
                0x00000000201747d4                blt_leg_adv_mainloop_task
 *fill*         0x000000002017483a        0x2 
 .text.blt_ll_procInitiateConnectionTimeout
                0x000000002017483c       0xce /cygdrive/c/Users/huangli/AppData/Local/Temp/concurrent_sampleLight_b92.elf.60zuQo.ltrans2.ltrans.o
 *fill*         0x000000002017490a        0x2 
 .text.blt_init_mainloop_task
                0x000000002017490c       0x3a /cygdrive/c/Users/huangli/AppData/Local/Temp/concurrent_sampleLight_b92.elf.60zuQo.ltrans2.ltrans.o
                0x000000002017490c                blt_init_mainloop_task
 *fill*         0x0000000020174946        0x2 
 .text.zb_task  0x0000000020174948      0x1ba /cygdrive/c/Users/huangli/AppData/Local/Temp/concurrent_sampleLight_b92.elf.60zuQo.ltrans2.ltrans.o
 *fill*         0x0000000020174b02        0x2 
 .text.zb_ble_switch_proc
                0x0000000020174b04      0x330 /cygdrive/c/Users/huangli/AppData/Local/Temp/concurrent_sampleLight_b92.elf.60zuQo.ltrans2.ltrans.o
                0x0000000020174b04                zb_ble_switch_proc
 .text          0x0000000020174e34      0x118 /cygdrive/c/Users/huangli/AppData/Local/Temp/concurrent_sampleLight_b92.elf.60zuQo.ltrans3.ltrans.o
                0x0000000020174e34                flash_dread
                0x0000000020174e5c                flash_read_mid
                0x0000000020174e88                flash_erase_sector
                0x0000000020174ebc                flash_page_program
                0x0000000020174f24                start_reboot
 .text.blt_smp_setCertTimeoutTick
                0x0000000020174f4c        0xe /cygdrive/c/Users/huangli/AppData/Local/Temp/concurrent_sampleLight_b92.elf.60zuQo.ltrans3.ltrans.o
                0x0000000020174f4c                blt_smp_setCertTimeoutTick
 *fill*         0x0000000020174f5a        0x2 
 .text.blt_smp_getStkGenMethod
                0x0000000020174f5c       0x6e /cygdrive/c/Users/huangli/AppData/Local/Temp/concurrent_sampleLight_b92.elf.60zuQo.ltrans3.ltrans.o
 *fill*         0x0000000020174fca        0x2 
 .text.blc_smp_getBondingInfoCurStartAddr
                0x0000000020174fcc        0x6 /cygdrive/c/Users/huangli/AppData/Local/Temp/concurrent_sampleLight_b92.elf.60zuQo.ltrans3.ltrans.o
 *fill*         0x0000000020174fd2        0x2 
 .text.ota_save_data
                0x0000000020174fd4      0x170 /cygdrive/c/Users/huangli/AppData/Local/Temp/concurrent_sampleLight_b92.elf.60zuQo.ltrans3.ltrans.o
 .text.ldsGetDriverTypeIsPwm
                0x0000000020175144        0xa /cygdrive/c/Users/huangli/AppData/Local/Temp/concurrent_sampleLight_b92.elf.60zuQo.ltrans3.ltrans.o
                0x0000000020175144                ldsGetDriverTypeIsPwm
 *fill*         0x000000002017514e        0x2 
 .text.ldsMfgTokenDriverMaxDutyCycle
                0x0000000020175150       0x1c /cygdrive/c/Users/huangli/AppData/Local/Temp/concurrent_sampleLight_b92.elf.60zuQo.ltrans3.ltrans.o
 .text.ldsTokenWwOutputLimit
                0x000000002017516c       0x1a /cygdrive/c/Users/huangli/AppData/Local/Temp/concurrent_sampleLight_b92.elf.60zuQo.ltrans3.ltrans.o
 *fill*         0x0000000020175186        0x2 
 .text.ldsTokenCwOutputLimit
                0x0000000020175188       0x1a /cygdrive/c/Users/huangli/AppData/Local/Temp/concurrent_sampleLight_b92.elf.60zuQo.ltrans3.ltrans.o
 *fill*         0x00000000201751a2        0x2 
 .text.ldsTokenMediumOutputLimit
                0x00000000201751a4       0x1a /cygdrive/c/Users/huangli/AppData/Local/Temp/concurrent_sampleLight_b92.elf.60zuQo.ltrans3.ltrans.o
 *fill*         0x00000000201751be        0x2 
 .text.ldsDriverPwmInit
                0x00000000201751c0       0x7a /cygdrive/c/Users/huangli/AppData/Local/Temp/concurrent_sampleLight_b92.elf.60zuQo.ltrans3.ltrans.o
 *fill*         0x000000002017523a        0x2 
 .text.ldsDataMoveCheck.lto_priv.0
                0x000000002017523c       0x2a /cygdrive/c/Users/huangli/AppData/Local/Temp/concurrent_sampleLight_b92.elf.60zuQo.ltrans3.ltrans.o
 *fill*         0x0000000020175266        0x2 
 .text.tl_zbMacPendingDataSearch.part.0
                0x0000000020175268       0x80 /cygdrive/c/Users/huangli/AppData/Local/Temp/concurrent_sampleLight_b92.elf.60zuQo.ltrans3.ltrans.o
 .text.tl_zbMacPendingDataSearch
                0x00000000201752e8       0x12 /cygdrive/c/Users/huangli/AppData/Local/Temp/concurrent_sampleLight_b92.elf.60zuQo.ltrans3.ltrans.o
 *fill*         0x00000000201752fa        0x2 
 .text.blt_ota_pushVersionRsp
                0x00000000201752fc       0x48 /cygdrive/c/Users/huangli/AppData/Local/Temp/concurrent_sampleLight_b92.elf.60zuQo.ltrans3.ltrans.o
 .text.otaWrite
                0x0000000020175344      0x400 /cygdrive/c/Users/huangli/AppData/Local/Temp/concurrent_sampleLight_b92.elf.60zuQo.ltrans3.ltrans.o
                0x0000000020175344                otaWrite
 .text.ldsDeviceAdcVoltageGet
                0x0000000020175744        0x6 /cygdrive/c/Users/huangli/AppData/Local/Temp/concurrent_sampleLight_b92.elf.60zuQo.ltrans3.ltrans.o
 *fill*         0x000000002017574a        0x2 
 .text.ldsTrfTimerSchedule
                0x000000002017574c      0x2f6 /cygdrive/c/Users/huangli/AppData/Local/Temp/concurrent_sampleLight_b92.elf.60zuQo.ltrans3.ltrans.o
 *fill*         0x0000000020175a42        0x2 
 .text.ldsDeviceCurrentOnoffState
                0x0000000020175a44       0x22 /cygdrive/c/Users/huangli/AppData/Local/Temp/concurrent_sampleLight_b92.elf.60zuQo.ltrans3.ltrans.o
 *fill*         0x0000000020175a66        0x2 
 .text.tl_zbMlmeCmdDisassociateNotifyRecvd
                0x0000000020175a68       0x32 /cygdrive/c/Users/huangli/AppData/Local/Temp/concurrent_sampleLight_b92.elf.60zuQo.ltrans3.ltrans.o
                0x0000000020175a68                tl_zbMlmeCmdDisassociateNotifyRecvd
 *fill*         0x0000000020175a9a        0x2 
 .text.ldsSetAttrWhenReachTarget.part.0
                0x0000000020175a9c       0x6c /cygdrive/c/Users/huangli/AppData/Local/Temp/concurrent_sampleLight_b92.elf.60zuQo.ltrans3.ltrans.o
 .text.ldsSetAttrWhenReachTarget
                0x0000000020175b08       0xe2 /cygdrive/c/Users/huangli/AppData/Local/Temp/concurrent_sampleLight_b92.elf.60zuQo.ltrans3.ltrans.o
 *fill*         0x0000000020175bea        0x2 
 .text.ldsI2cKp18057ChipDataTransform.part.0
                0x0000000020175bec      0x200 /cygdrive/c/Users/huangli/AppData/Local/Temp/concurrent_sampleLight_b92.elf.60zuQo.ltrans3.ltrans.o
 .text.zb_info_save
                0x0000000020175dec       0x3e /cygdrive/c/Users/huangli/AppData/Local/Temp/concurrent_sampleLight_b92.elf.60zuQo.ltrans3.ltrans.o
                0x0000000020175dec                zb_info_save
 *fill*         0x0000000020175e2a        0x2 
 .text.tl_zbMlmeCmdAssociateReqRecvd.lto_priv.0
                0x0000000020175e2c       0x40 /cygdrive/c/Users/huangli/AppData/Local/Temp/concurrent_sampleLight_b92.elf.60zuQo.ltrans3.ltrans.o
                0x0000000020175e2c                tl_zbMlmeCmdAssociateReqRecvd.lto_priv.0
 .text.tl_zbMlmeCmdCoordRealignRecvd.lto_priv.0
                0x0000000020175e6c       0xbc /cygdrive/c/Users/huangli/AppData/Local/Temp/concurrent_sampleLight_b92.elf.60zuQo.ltrans3.ltrans.o
                0x0000000020175e6c                tl_zbMlmeCmdCoordRealignRecvd.lto_priv.0
 .text.tl_zbMlmeCmdOrphanNotifyRecvd.lto_priv.0
                0x0000000020175f28       0x36 /cygdrive/c/Users/huangli/AppData/Local/Temp/concurrent_sampleLight_b92.elf.60zuQo.ltrans3.ltrans.o
                0x0000000020175f28                tl_zbMlmeCmdOrphanNotifyRecvd.lto_priv.0
 *fill*         0x0000000020175f5e        0x2 
 .text.tl_zbMlmeCmdBeaconReqRecvd.lto_priv.0
                0x0000000020175f60       0x96 /cygdrive/c/Users/huangli/AppData/Local/Temp/concurrent_sampleLight_b92.elf.60zuQo.ltrans3.ltrans.o
                0x0000000020175f60                tl_zbMlmeCmdBeaconReqRecvd.lto_priv.0
 *fill*         0x0000000020175ff6        0x2 
 .text.tl_zbMacPollRequestHandler
                0x0000000020175ff8       0x94 /cygdrive/c/Users/huangli/AppData/Local/Temp/concurrent_sampleLight_b92.elf.60zuQo.ltrans3.ltrans.o
                0x0000000020175ff8                tl_zbMacPollRequestHandler
 .text.tl_zbMacPacketDelaySend.lto_priv.0
                0x000000002017608c       0x2a /cygdrive/c/Users/huangli/AppData/Local/Temp/concurrent_sampleLight_b92.elf.60zuQo.ltrans3.ltrans.o
                0x000000002017608c                tl_zbMacPacketDelaySend.lto_priv.0
 *fill*         0x00000000201760b6        0x2 
 .text.tl_zbMacMlmeDataRequestCb
                0x00000000201760b8       0xe6 /cygdrive/c/Users/huangli/AppData/Local/Temp/concurrent_sampleLight_b92.elf.60zuQo.ltrans3.ltrans.o
 *fill*         0x000000002017619e        0x2 
 .text.tl_zbMlmeCmdDataReqRecvd.lto_priv.0
                0x00000000201761a0        0x6 /cygdrive/c/Users/huangli/AppData/Local/Temp/concurrent_sampleLight_b92.elf.60zuQo.ltrans3.ltrans.o
                0x00000000201761a0                tl_zbMlmeCmdDataReqRecvd.lto_priv.0
 *fill*         0x00000000201761a6        0x2 
 .text.tl_zbMacStartReqConfirm
                0x00000000201761a8       0x7a /cygdrive/c/Users/huangli/AppData/Local/Temp/concurrent_sampleLight_b92.elf.60zuQo.ltrans3.ltrans.o
 *fill*         0x0000000020176222        0x2 
 .text.blt_smp_param_pre_init
                0x0000000020176224       0x2e /cygdrive/c/Users/huangli/AppData/Local/Temp/concurrent_sampleLight_b92.elf.60zuQo.ltrans3.ltrans.o
                0x0000000020176224                blt_smp_param_pre_init
 *fill*         0x0000000020176252        0x2 
 .text.blt_smp_sendSecurityRequest
                0x0000000020176254       0x5a /cygdrive/c/Users/huangli/AppData/Local/Temp/concurrent_sampleLight_b92.elf.60zuQo.ltrans3.ltrans.o
                0x0000000020176254                blt_smp_sendSecurityRequest
 *fill*         0x00000000201762ae        0x2 
 .text.blt_smp_procSlaveSecurityRequest
                0x00000000201762b0       0x8c /cygdrive/c/Users/huangli/AppData/Local/Temp/concurrent_sampleLight_b92.elf.60zuQo.ltrans3.ltrans.o
                0x00000000201762b0                blt_smp_procSlaveSecurityRequest
 .text.blc_smp_isPairingBusy
                0x000000002017633c       0x12 /cygdrive/c/Users/huangli/AppData/Local/Temp/concurrent_sampleLight_b92.elf.60zuQo.ltrans3.ltrans.o
                0x000000002017633c                blc_smp_isPairingBusy
 *fill*         0x000000002017634e        0x2 
 .text.smp_write_flash_page
                0x0000000020176350       0x7e /cygdrive/c/Users/huangli/AppData/Local/Temp/concurrent_sampleLight_b92.elf.60zuQo.ltrans3.ltrans.o
                0x0000000020176350                smp_write_flash_page
 *fill*         0x00000000201763ce        0x2 
 .text.blt_smp_initBondingInfoFromFlash
                0x00000000201763d0      0x354 /cygdrive/c/Users/huangli/AppData/Local/Temp/concurrent_sampleLight_b92.elf.60zuQo.ltrans3.ltrans.o
                0x00000000201763d0                blt_smp_initBondingInfoFromFlash
 .text.blt_smp_procBondingInfoIndexAlarm
                0x0000000020176724       0x36 /cygdrive/c/Users/huangli/AppData/Local/Temp/concurrent_sampleLight_b92.elf.60zuQo.ltrans3.ltrans.o
                0x0000000020176724                blt_smp_procBondingInfoIndexAlarm
 *fill*         0x000000002017675a        0x2 
 .text.blt_smp_procPairingEnd
                0x000000002017675c       0xba /cygdrive/c/Users/huangli/AppData/Local/Temp/concurrent_sampleLight_b92.elf.60zuQo.ltrans3.ltrans.o
                0x000000002017675c                blt_smp_procPairingEnd
 *fill*         0x0000000020176816        0x2 
 .text.blt_smp_certTimeoutLoopEvt
                0x0000000020176818       0x36 /cygdrive/c/Users/huangli/AppData/Local/Temp/concurrent_sampleLight_b92.elf.60zuQo.ltrans3.ltrans.o
                0x0000000020176818                blt_smp_certTimeoutLoopEvt
 *fill*         0x000000002017684e        0x2 
 .text.blt_smp_saveBondingKey
                0x0000000020176850      0x378 /cygdrive/c/Users/huangli/AppData/Local/Temp/concurrent_sampleLight_b92.elf.60zuQo.ltrans3.ltrans.o
                0x0000000020176850                blt_smp_saveBondingKey
 .text.tl_zbWaitForAssociationRespTimeout
                0x0000000020176bc8       0x3c /cygdrive/c/Users/huangli/AppData/Local/Temp/concurrent_sampleLight_b92.elf.60zuQo.ltrans3.ltrans.o
 .text.macDataPending
                0x0000000020176c04       0xb6 /cygdrive/c/Users/huangli/AppData/Local/Temp/concurrent_sampleLight_b92.elf.60zuQo.ltrans3.ltrans.o
 *fill*         0x0000000020176cba        0x2 
 .text.tl_zbMlmeCmdAssociateRespRecvd.lto_priv.0
                0x0000000020176cbc       0xfe /cygdrive/c/Users/huangli/AppData/Local/Temp/concurrent_sampleLight_b92.elf.60zuQo.ltrans3.ltrans.o
                0x0000000020176cbc                tl_zbMlmeCmdAssociateRespRecvd.lto_priv.0
 *fill*         0x0000000020176dba        0x2 
 .text.blc_attc_sendMtuSizeExchangeRequest
                0x0000000020176dbc       0x56 /cygdrive/c/Users/huangli/AppData/Local/Temp/concurrent_sampleLight_b92.elf.60zuQo.ltrans3.ltrans.o
                0x0000000020176dbc                blc_attc_sendMtuSizeExchangeRequest
 *fill*         0x0000000020176e12        0x2 
 .text.ldsBulbDriverMinitrimCtrlMoveTo.part.0
                0x0000000020176e14      0x3ba /cygdrive/c/Users/huangli/AppData/Local/Temp/concurrent_sampleLight_b92.elf.60zuQo.ltrans3.ltrans.o
                0x0000000020176e14                ldsBulbDriverMinitrimCtrlMoveTo.part.0
 *fill*         0x00000000201771ce        0x2 
 .text.ldsDeviceNtcEventCb
                0x00000000201771d0       0x3a /cygdrive/c/Users/huangli/AppData/Local/Temp/concurrent_sampleLight_b92.elf.60zuQo.ltrans3.ltrans.o
 *fill*         0x000000002017720a        0x2 
 .text.ldsMfgTokenCctDriverModeGet
                0x000000002017720c       0x16 /cygdrive/c/Users/huangli/AppData/Local/Temp/concurrent_sampleLight_b92.elf.60zuQo.ltrans3.ltrans.o
                0x000000002017720c                ldsMfgTokenCctDriverModeGet
 *fill*         0x0000000020177222        0x2 
 .text.ldsMfgTokenGetModelID
                0x0000000020177224       0x46 /cygdrive/c/Users/huangli/AppData/Local/Temp/concurrent_sampleLight_b92.elf.60zuQo.ltrans3.ltrans.o
                0x0000000020177224                ldsMfgTokenGetModelID
 *fill*         0x000000002017726a        0x2 
 .text.ldsMfgTokenDriverI2cType
                0x000000002017726c       0x16 /cygdrive/c/Users/huangli/AppData/Local/Temp/concurrent_sampleLight_b92.elf.60zuQo.ltrans3.ltrans.o
                0x000000002017726c                ldsMfgTokenDriverI2cType
 *fill*         0x0000000020177282        0x2 
 .text.ldsDriverCommonInit
                0x0000000020177284      0x1d8 /cygdrive/c/Users/huangli/AppData/Local/Temp/concurrent_sampleLight_b92.elf.60zuQo.ltrans3.ltrans.o
                0x0000000020177284                ldsDriverCommonInit
 .text.ldsMfgTokenDriverMinDutyCycle
                0x000000002017745c       0x1a /cygdrive/c/Users/huangli/AppData/Local/Temp/concurrent_sampleLight_b92.elf.60zuQo.ltrans3.ltrans.o
                0x000000002017745c                ldsMfgTokenDriverMinDutyCycle
 *fill*         0x0000000020177476        0x2 
 .text.ldsLightPwmLowBrightnessOpenOptimization
                0x0000000020177478      0x1ae /cygdrive/c/Users/huangli/AppData/Local/Temp/concurrent_sampleLight_b92.elf.60zuQo.ltrans3.ltrans.o
                0x0000000020177478                ldsLightPwmLowBrightnessOpenOptimization
 *fill*         0x0000000020177626        0x2 
 .text.ldsLightEffectFactoryResetStart
                0x0000000020177628       0x44 /cygdrive/c/Users/huangli/AppData/Local/Temp/concurrent_sampleLight_b92.elf.60zuQo.ltrans3.ltrans.o
                0x0000000020177628                ldsLightEffectFactoryResetStart
 .text.LDS_LOG  0x000000002017766c       0x66 /cygdrive/c/Users/huangli/AppData/Local/Temp/concurrent_sampleLight_b92.elf.60zuQo.ltrans3.ltrans.o
                0x000000002017766c                LDS_LOG
 *fill*         0x00000000201776d2        0x2 
 .text.ldsDeivceNtcInit
                0x00000000201776d4       0x7a /cygdrive/c/Users/huangli/AppData/Local/Temp/concurrent_sampleLight_b92.elf.60zuQo.ltrans3.ltrans.o
                0x00000000201776d4                ldsDeivceNtcInit
 *fill*         0x000000002017774e        0x2 
 .text.ldsGetMfgTokenColorTemperaturePercentage
                0x0000000020177750       0x42 /cygdrive/c/Users/huangli/AppData/Local/Temp/concurrent_sampleLight_b92.elf.60zuQo.ltrans3.ltrans.o
                0x0000000020177750                ldsGetMfgTokenColorTemperaturePercentage
 *fill*         0x0000000020177792        0x2 
 .text.ldsLightEffectEventHandler.part.0
                0x0000000020177794      0x284 /cygdrive/c/Users/huangli/AppData/Local/Temp/concurrent_sampleLight_b92.elf.60zuQo.ltrans3.ltrans.o
 .text.ldsLightEffectEventHandler.lto_priv.0
                0x0000000020177a18       0x38 /cygdrive/c/Users/huangli/AppData/Local/Temp/concurrent_sampleLight_b92.elf.60zuQo.ltrans3.ltrans.o
                0x0000000020177a18                ldsLightEffectEventHandler.lto_priv.0
 .text.ldsMinitrimEventHandler.lto_priv.0
                0x0000000020177a50       0x70 /cygdrive/c/Users/huangli/AppData/Local/Temp/concurrent_sampleLight_b92.elf.60zuQo.ltrans3.ltrans.o
                0x0000000020177a50                ldsMinitrimEventHandler.lto_priv.0
 .text.ldsDimAlgorithmCalulateExpTable.lto_priv.0
                0x0000000020177ac0       0xb6 /cygdrive/c/Users/huangli/AppData/Local/Temp/concurrent_sampleLight_b92.elf.60zuQo.ltrans3.ltrans.o
                0x0000000020177ac0                ldsDimAlgorithmCalulateExpTable.lto_priv.0
 *fill*         0x0000000020177b76        0x2 
 .text.ldsDriverI2cWrite
                0x0000000020177b78      0x2d2 /cygdrive/c/Users/huangli/AppData/Local/Temp/concurrent_sampleLight_b92.elf.60zuQo.ltrans3.ltrans.o
                0x0000000020177b78                ldsDriverI2cWrite
 *fill*         0x0000000020177e4a        0x2 
 .text.aes_set_key_data
                0x0000000020177e4c       0x86 /cygdrive/c/Users/huangli/AppData/Local/Temp/concurrent_sampleLight_b92.elf.60zuQo.ltrans3.ltrans.o
                0x0000000020177e4c                aes_set_key_data
 *fill*         0x0000000020177ed2        0x2 
 .text.rf_set_zigbee_250K_mode
                0x0000000020177ed4      0x126 /cygdrive/c/Users/huangli/AppData/Local/Temp/concurrent_sampleLight_b92.elf.60zuQo.ltrans3.ltrans.o
                0x0000000020177ed4                rf_set_zigbee_250K_mode
 *fill*         0x0000000020177ffa        0x2 
 .text.efuse_read
                0x0000000020177ffc       0x88 /cygdrive/c/Users/huangli/AppData/Local/Temp/concurrent_sampleLight_b92.elf.60zuQo.ltrans3.ltrans.o
                0x0000000020177ffc                efuse_read
 .text.ldsDeviceInformationInfo
                0x0000000020178084       0x6c /cygdrive/c/Users/huangli/AppData/Local/Temp/concurrent_sampleLight_b92.elf.60zuQo.ltrans3.ltrans.o
                0x0000000020178084                ldsDeviceInformationInfo
 .text.generateRandomNum
                0x00000000201780f0       0x52 /cygdrive/c/Users/huangli/AppData/Local/Temp/concurrent_sampleLight_b92.elf.60zuQo.ltrans3.ltrans.o
                0x00000000201780f0                generateRandomNum
 *fill*         0x0000000020178142        0x2 
 .text.zb_nwkKeySet
                0x0000000020178144       0x6e /cygdrive/c/Users/huangli/AppData/Local/Temp/concurrent_sampleLight_b92.elf.60zuQo.ltrans3.ltrans.o
                0x0000000020178144                zb_nwkKeySet
 *fill*         0x00000000201781b2        0x2 
 .text.mac_pibNvInit
                0x00000000201781b4       0xca /cygdrive/c/Users/huangli/AppData/Local/Temp/concurrent_sampleLight_b92.elf.60zuQo.ltrans3.ltrans.o
                0x00000000201781b4                mac_pibNvInit
 *fill*         0x000000002017827e        0x2 
 .text.tl_zbMacHdrBuilder
                0x0000000020178280       0xe0 /cygdrive/c/Users/huangli/AppData/Local/Temp/concurrent_sampleLight_b92.elf.60zuQo.ltrans3.ltrans.o
                0x0000000020178280                tl_zbMacHdrBuilder
 .text.tl_zbMacAssociateRequestHandler
                0x0000000020178360      0x120 /cygdrive/c/Users/huangli/AppData/Local/Temp/concurrent_sampleLight_b92.elf.60zuQo.ltrans3.ltrans.o
                0x0000000020178360                tl_zbMacAssociateRequestHandler
 .text.tl_zbMacAssociateResponseHandler
                0x0000000020178480       0xde /cygdrive/c/Users/huangli/AppData/Local/Temp/concurrent_sampleLight_b92.elf.60zuQo.ltrans3.ltrans.o
                0x0000000020178480                tl_zbMacAssociateResponseHandler
 *fill*         0x000000002017855e        0x2 
 .text.tl_zbMacDisassociateRequestHandler
                0x0000000020178560      0x152 /cygdrive/c/Users/huangli/AppData/Local/Temp/concurrent_sampleLight_b92.elf.60zuQo.ltrans3.ltrans.o
                0x0000000020178560                tl_zbMacDisassociateRequestHandler
 *fill*         0x00000000201786b2        0x2 
 .text.tl_zbMacMlmeCoordRealignmentCmdSend
                0x00000000201786b4      0x176 /cygdrive/c/Users/huangli/AppData/Local/Temp/concurrent_sampleLight_b92.elf.60zuQo.ltrans3.ltrans.o
 *fill*         0x000000002017882a        0x2 
 .text.tl_zbMacOrphanResponseHandler
                0x000000002017882c       0x7c /cygdrive/c/Users/huangli/AppData/Local/Temp/concurrent_sampleLight_b92.elf.60zuQo.ltrans3.ltrans.o
                0x000000002017882c                tl_zbMacOrphanResponseHandler
 .text.tl_zbMacStartRequestHandler
                0x00000000201788a8       0xba /cygdrive/c/Users/huangli/AppData/Local/Temp/concurrent_sampleLight_b92.elf.60zuQo.ltrans3.ltrans.o
                0x00000000201788a8                tl_zbMacStartRequestHandler
 *fill*         0x0000000020178962        0x2 
 .text.tl_zbMacHdrParse
                0x0000000020178964      0x10a /cygdrive/c/Users/huangli/AppData/Local/Temp/concurrent_sampleLight_b92.elf.60zuQo.ltrans3.ltrans.o
                0x0000000020178964                tl_zbMacHdrParse
 *fill*         0x0000000020178a6e        0x2 
 .text.tl_zbMacMcpsDataRequestSendConfirm
                0x0000000020178a70       0x92 /cygdrive/c/Users/huangli/AppData/Local/Temp/concurrent_sampleLight_b92.elf.60zuQo.ltrans3.ltrans.o
                0x0000000020178a70                tl_zbMacMcpsDataRequestSendConfirm
 *fill*         0x0000000020178b02        0x2 
 .text.tl_zbMacMcpsDataRequestProc
                0x0000000020178b04      0x1ae /cygdrive/c/Users/huangli/AppData/Local/Temp/concurrent_sampleLight_b92.elf.60zuQo.ltrans3.ltrans.o
                0x0000000020178b04                tl_zbMacMcpsDataRequestProc
 *fill*         0x0000000020178cb2        0x2 
 .text.tl_zbMacDataRequestStatusCheck
                0x0000000020178cb4       0xd2 /cygdrive/c/Users/huangli/AppData/Local/Temp/concurrent_sampleLight_b92.elf.60zuQo.ltrans3.ltrans.o
                0x0000000020178cb4                tl_zbMacDataRequestStatusCheck
 *fill*         0x0000000020178d86        0x2 
 .text.tl_zbMaxTxConfirmCb
                0x0000000020178d88      0x200 /cygdrive/c/Users/huangli/AppData/Local/Temp/concurrent_sampleLight_b92.elf.60zuQo.ltrans3.ltrans.o
                0x0000000020178d88                tl_zbMaxTxConfirmCb
 .text.macDataPendingListProc
                0x0000000020178f88       0x7c /cygdrive/c/Users/huangli/AppData/Local/Temp/concurrent_sampleLight_b92.elf.60zuQo.ltrans3.ltrans.o
                0x0000000020178f88                macDataPendingListProc
 .text.macIndirPeriodic
                0x0000000020179004       0xa8 /cygdrive/c/Users/huangli/AppData/Local/Temp/concurrent_sampleLight_b92.elf.60zuQo.ltrans3.ltrans.o
                0x0000000020179004                macIndirPeriodic
 .text.ldsDeviceFactoryTestLidSet.lto_priv.0
                0x00000000201790ac       0x4a /cygdrive/c/Users/huangli/AppData/Local/Temp/concurrent_sampleLight_b92.elf.60zuQo.ltrans3.ltrans.o
                0x00000000201790ac                ldsDeviceFactoryTestLidSet.lto_priv.0
 *fill*         0x00000000201790f6        0x2 
 .text.ldsFactoryTestExit
                0x00000000201790f8       0x74 /cygdrive/c/Users/huangli/AppData/Local/Temp/concurrent_sampleLight_b92.elf.60zuQo.ltrans3.ltrans.o
                0x00000000201790f8                ldsFactoryTestExit
 .text.ldsDeviceAgingTestInit
                0x000000002017916c       0x40 /cygdrive/c/Users/huangli/AppData/Local/Temp/concurrent_sampleLight_b92.elf.60zuQo.ltrans3.ltrans.o
                0x000000002017916c                ldsDeviceAgingTestInit
 .text.ldsAgingTestExit
                0x00000000201791ac       0x6e /cygdrive/c/Users/huangli/AppData/Local/Temp/concurrent_sampleLight_b92.elf.60zuQo.ltrans3.ltrans.o
                0x00000000201791ac                ldsAgingTestExit
 *fill*         0x000000002017921a        0x2 
 .text.ldsDeviceAdcInit
                0x000000002017921c      0x324 /cygdrive/c/Users/huangli/AppData/Local/Temp/concurrent_sampleLight_b92.elf.60zuQo.ltrans3.ltrans.o
                0x000000002017921c                ldsDeviceAdcInit
 .text.rf_mode_init
                0x0000000020179540       0xd6 /cygdrive/c/Users/huangli/AppData/Local/Temp/concurrent_sampleLight_b92.elf.60zuQo.ltrans3.ltrans.o
                0x0000000020179540                rf_mode_init
 *fill*         0x0000000020179616        0x2 
 .text.cpu_wakeup_no_deepretn_back_init.lto_priv.0
                0x0000000020179618      0x1b2 /cygdrive/c/Users/huangli/AppData/Local/Temp/concurrent_sampleLight_b92.elf.60zuQo.ltrans3.ltrans.o
                0x0000000020179618                cpu_wakeup_no_deepretn_back_init.lto_priv.0
 *fill*         0x00000000201797ca        0x2 
 .text.blt_crypto_alg_c1
                0x00000000201797cc       0xe2 /cygdrive/c/Users/huangli/AppData/Local/Temp/concurrent_sampleLight_b92.elf.60zuQo.ltrans3.ltrans.o
 *fill*         0x00000000201798ae        0x2 
 .text.blt_smp_pushSmpCmdPkt
                0x00000000201798b0      0x39c /cygdrive/c/Users/huangli/AppData/Local/Temp/concurrent_sampleLight_b92.elf.60zuQo.ltrans3.ltrans.o
                0x00000000201798b0                blt_smp_pushSmpCmdPkt
 .text.blt_crypto_alg_s1
                0x0000000020179c4c       0x48 /cygdrive/c/Users/huangli/AppData/Local/Temp/concurrent_sampleLight_b92.elf.60zuQo.ltrans3.ltrans.o
                0x0000000020179c4c                blt_crypto_alg_s1
 .text.blt_smp_l2capSmpCmdHandler
                0x0000000020179c94      0xdbe /cygdrive/c/Users/huangli/AppData/Local/Temp/concurrent_sampleLight_b92.elf.60zuQo.ltrans3.ltrans.o
                0x0000000020179c94                blt_smp_l2capSmpCmdHandler
 *fill*         0x000000002017aa52        0x2 
 .text.blt_smp_procCentralPairingRequest
                0x000000002017aa54       0x70 /cygdrive/c/Users/huangli/AppData/Local/Temp/concurrent_sampleLight_b92.elf.60zuQo.ltrans3.ltrans.o
                0x000000002017aa54                blt_smp_procCentralPairingRequest
 .text.aes_ll_ccm_encryption_init
                0x000000002017aac4       0xb4 /cygdrive/c/Users/huangli/AppData/Local/Temp/concurrent_sampleLight_b92.elf.60zuQo.ltrans3.ltrans.o
                0x000000002017aac4                aes_ll_ccm_encryption_init
 .text.blt_smp_searchBondingDevice_by_PeerMacAddr
                0x000000002017ab78       0xf0 /cygdrive/c/Users/huangli/AppData/Local/Temp/concurrent_sampleLight_b92.elf.60zuQo.ltrans3.ltrans.o
                0x000000002017ab78                blt_smp_searchBondingDevice_by_PeerMacAddr
 .text.tl_zbReadyToPullParentForAssoRsp
                0x000000002017ac68       0xa2 /cygdrive/c/Users/huangli/AppData/Local/Temp/concurrent_sampleLight_b92.elf.60zuQo.ltrans3.ltrans.o
 *fill*         0x000000002017ad0a        0x2 
 .text.tl_zbTaskQPop
                0x000000002017ad0c       0xde /cygdrive/c/Users/huangli/AppData/Local/Temp/concurrent_sampleLight_b92.elf.60zuQo.ltrans3.ltrans.o
                0x000000002017ad0c                tl_zbTaskQPop
 *fill*         0x000000002017adea        0x2 
 .text.tl_zbMacResetRequestHandler
                0x000000002017adec       0x78 /cygdrive/c/Users/huangli/AppData/Local/Temp/concurrent_sampleLight_b92.elf.60zuQo.ltrans3.ltrans.o
                0x000000002017adec                tl_zbMacResetRequestHandler
 .text.tl_zbNwkParentChoose
                0x000000002017ae64      0x11a /cygdrive/c/Users/huangli/AppData/Local/Temp/concurrent_sampleLight_b92.elf.60zuQo.ltrans4.ltrans.o
 *fill*         0x000000002017af7e        0x2 
 .text.nwkHdrParse
                0x000000002017af80       0xf0 /cygdrive/c/Users/huangli/AppData/Local/Temp/concurrent_sampleLight_b92.elf.60zuQo.ltrans4.ltrans.o
 .text.tl_zbNwkNlmeEDScanRequestHandler
                0x000000002017b070       0x4e /cygdrive/c/Users/huangli/AppData/Local/Temp/concurrent_sampleLight_b92.elf.60zuQo.ltrans4.ltrans.o
                0x000000002017b070                tl_zbNwkNlmeEDScanRequestHandler
 *fill*         0x000000002017b0be        0x2 
 .text.mac_waitTxIrqCb
                0x000000002017b0c0       0x3e /cygdrive/c/Users/huangli/AppData/Local/Temp/concurrent_sampleLight_b92.elf.60zuQo.ltrans4.ltrans.o
                0x000000002017b0c0                mac_waitTxIrqCb
 *fill*         0x000000002017b0fe        0x2 
 .text.tl_zbNwkNlmeNwkDiscRequestHandler
                0x000000002017b100       0x96 /cygdrive/c/Users/huangli/AppData/Local/Temp/concurrent_sampleLight_b92.elf.60zuQo.ltrans4.ltrans.o
                0x000000002017b100                tl_zbNwkNlmeNwkDiscRequestHandler
 *fill*         0x000000002017b196        0x2 
 .text.tl_zbNwkNlmeNetworkFormationRequestHandler
                0x000000002017b198       0x8e /cygdrive/c/Users/huangli/AppData/Local/Temp/concurrent_sampleLight_b92.elf.60zuQo.ltrans4.ltrans.o
                0x000000002017b198                tl_zbNwkNlmeNetworkFormationRequestHandler
 *fill*         0x000000002017b226        0x2 
 .text.tl_zbNwkNlmeStartRouterRequestHandler
                0x000000002017b228       0x9e /cygdrive/c/Users/huangli/AppData/Local/Temp/concurrent_sampleLight_b92.elf.60zuQo.ltrans4.ltrans.o
                0x000000002017b228                tl_zbNwkNlmeStartRouterRequestHandler
 *fill*         0x000000002017b2c6        0x2 
 .text.nwk_linkStPeriodic
                0x000000002017b2c8       0x46 /cygdrive/c/Users/huangli/AppData/Local/Temp/concurrent_sampleLight_b92.elf.60zuQo.ltrans4.ltrans.o
                0x000000002017b2c8                nwk_linkStPeriodic
 *fill*         0x000000002017b30e        0x2 
 .text.mac_rxDataParse
                0x000000002017b310      0x368 /cygdrive/c/Users/huangli/AppData/Local/Temp/concurrent_sampleLight_b92.elf.60zuQo.ltrans4.ltrans.o
 .text.nwkBrcTransEntryCreate
                0x000000002017b678       0x6c /cygdrive/c/Users/huangli/AppData/Local/Temp/concurrent_sampleLight_b92.elf.60zuQo.ltrans4.ltrans.o
 .text.nwkBrcTimerStart
                0x000000002017b6e4       0xc8 /cygdrive/c/Users/huangli/AppData/Local/Temp/concurrent_sampleLight_b92.elf.60zuQo.ltrans4.ltrans.o
 .text.tl_zbNlmeRejoinRespTimeoutCb
                0x000000002017b7ac       0xa4 /cygdrive/c/Users/huangli/AppData/Local/Temp/concurrent_sampleLight_b92.elf.60zuQo.ltrans4.ltrans.o
 .text.nwk_nodeAddrInfoStore
                0x000000002017b850      0x126 /cygdrive/c/Users/huangli/AppData/Local/Temp/concurrent_sampleLight_b92.elf.60zuQo.ltrans4.ltrans.o
                0x000000002017b850                nwk_nodeAddrInfoStore
 *fill*         0x000000002017b976        0x2 
 .text.nwkEndDevTimeoutInfoNVStore
                0x000000002017b978       0xea /cygdrive/c/Users/huangli/AppData/Local/Temp/concurrent_sampleLight_b92.elf.60zuQo.ltrans4.ltrans.o
 *fill*         0x000000002017ba62        0x2 
 .text.nwkBrcMsgPassiveAckTimeoutCb
                0x000000002017ba64      0x182 /cygdrive/c/Users/huangli/AppData/Local/Temp/concurrent_sampleLight_b92.elf.60zuQo.ltrans4.ltrans.o
 *fill*         0x000000002017bbe6        0x2 
 .text.tl_zbMacMlmeAssociateIndicationHandler
                0x000000002017bbe8       0x84 /cygdrive/c/Users/huangli/AppData/Local/Temp/concurrent_sampleLight_b92.elf.60zuQo.ltrans4.ltrans.o
                0x000000002017bbe8                tl_zbMacMlmeAssociateIndicationHandler
 .text.nwkBrcTransTabEntryClear
                0x000000002017bc6c       0x4a /cygdrive/c/Users/huangli/AppData/Local/Temp/concurrent_sampleLight_b92.elf.60zuQo.ltrans4.ltrans.o
 *fill*         0x000000002017bcb6        0x2 
 .text.nwkBrcPeriodic
                0x000000002017bcb8       0x86 /cygdrive/c/Users/huangli/AppData/Local/Temp/concurrent_sampleLight_b92.elf.60zuQo.ltrans4.ltrans.o
                0x000000002017bcb8                nwkBrcPeriodic
 *fill*         0x000000002017bd3e        0x2 
 .text.nwk_associateJoin.part.0
                0x000000002017bd40       0xe8 /cygdrive/c/Users/huangli/AppData/Local/Temp/concurrent_sampleLight_b92.elf.60zuQo.ltrans4.ltrans.o
 .text.tl_zbNwkNlmeJoinRequestHandler
                0x000000002017be28      0x140 /cygdrive/c/Users/huangli/AppData/Local/Temp/concurrent_sampleLight_b92.elf.60zuQo.ltrans4.ltrans.o
                0x000000002017be28                tl_zbNwkNlmeJoinRequestHandler
 .text.tl_zbMacTx
                0x000000002017bf68       0xd4 /cygdrive/c/Users/huangli/AppData/Local/Temp/concurrent_sampleLight_b92.elf.60zuQo.ltrans4.ltrans.o
                0x000000002017bf68                tl_zbMacTx
 .text.tl_zbMacScanRunning
                0x000000002017c03c      0x258 /cygdrive/c/Users/huangli/AppData/Local/Temp/concurrent_sampleLight_b92.elf.60zuQo.ltrans4.ltrans.o
 .text.tl_zbMacScanRequestHandler
                0x000000002017c294      0x13c /cygdrive/c/Users/huangli/AppData/Local/Temp/concurrent_sampleLight_b92.elf.60zuQo.ltrans4.ltrans.o
                0x000000002017c294                tl_zbMacScanRequestHandler
 .text.getNwkHdrSize
                0x000000002017c3d0       0x50 /cygdrive/c/Users/huangli/AppData/Local/Temp/concurrent_sampleLight_b92.elf.60zuQo.ltrans4.ltrans.o
                0x000000002017c3d0                getNwkHdrSize
 .text.nwk_addrConflictCb.lto_priv.0
                0x000000002017c420      0x158 /cygdrive/c/Users/huangli/AppData/Local/Temp/concurrent_sampleLight_b92.elf.60zuQo.ltrans4.ltrans.o
                0x000000002017c420                nwk_addrConflictCb.lto_priv.0
 .text.tl_zbNwkAddrMapRst
                0x000000002017c578       0xcc /cygdrive/c/Users/huangli/AppData/Local/Temp/concurrent_sampleLight_b92.elf.60zuQo.ltrans4.ltrans.o
                0x000000002017c578                tl_zbNwkAddrMapRst
 .text.tl_zbNwkAddrMapDelete
                0x000000002017c644       0x68 /cygdrive/c/Users/huangli/AppData/Local/Temp/concurrent_sampleLight_b92.elf.60zuQo.ltrans4.ltrans.o
                0x000000002017c644                tl_zbNwkAddrMapDelete
 .text.tl_zbShortAddrByExtAddr
                0x000000002017c6ac       0x68 /cygdrive/c/Users/huangli/AppData/Local/Temp/concurrent_sampleLight_b92.elf.60zuQo.ltrans4.ltrans.o
                0x000000002017c6ac                tl_zbShortAddrByExtAddr
 .text.tl_zbMacMlmeOrphanIndicationHandler
                0x000000002017c714       0x94 /cygdrive/c/Users/huangli/AppData/Local/Temp/concurrent_sampleLight_b92.elf.60zuQo.ltrans4.ltrans.o
                0x000000002017c714                tl_zbMacMlmeOrphanIndicationHandler
 .text.tl_idxByExtAddr
                0x000000002017c7a8       0x68 /cygdrive/c/Users/huangli/AppData/Local/Temp/concurrent_sampleLight_b92.elf.60zuQo.ltrans4.ltrans.o
                0x000000002017c7a8                tl_idxByExtAddr
 .text.tl_zbNwkAddrMapAdd
                0x000000002017c810      0x1bc /cygdrive/c/Users/huangli/AppData/Local/Temp/concurrent_sampleLight_b92.elf.60zuQo.ltrans4.ltrans.o
                0x000000002017c810                tl_zbNwkAddrMapAdd
 .text.tl_zbNwkStochasticAddrCal
                0x000000002017c9cc       0x70 /cygdrive/c/Users/huangli/AppData/Local/Temp/concurrent_sampleLight_b92.elf.60zuQo.ltrans4.ltrans.o
                0x000000002017c9cc                tl_zbNwkStochasticAddrCal
 .text.nwkEndDevTimeoutRspCnfHandler
                0x000000002017ca3c        0xa /cygdrive/c/Users/huangli/AppData/Local/Temp/concurrent_sampleLight_b92.elf.60zuQo.ltrans4.ltrans.o
                0x000000002017ca3c                tl_zbMacMlmeSyncLossIndicationHandler
                0x000000002017ca3c                nwkEndDevTimeoutRspCnfHandler
 *fill*         0x000000002017ca46        0x2 
 .text.nwk_tx   0x000000002017ca48      0x2c8 /cygdrive/c/Users/huangli/AppData/Local/Temp/concurrent_sampleLight_b92.elf.60zuQo.ltrans4.ltrans.o
                0x000000002017ca48                nwk_tx
 .text.tl_zbNwkNeighborAddrConflictHandle
                0x000000002017cd10      0x1d2 /cygdrive/c/Users/huangli/AppData/Local/Temp/concurrent_sampleLight_b92.elf.60zuQo.ltrans4.ltrans.o
                0x000000002017cd10                tl_zbNwkNeighborAddrConflictHandle
 *fill*         0x000000002017cee2        0x2 
 .text.nwk_rejoinReq
                0x000000002017cee4      0x1ba /cygdrive/c/Users/huangli/AppData/Local/Temp/concurrent_sampleLight_b92.elf.60zuQo.ltrans4.ltrans.o
 *fill*         0x000000002017d09e        0x2 
 .text.tl_zbNeighborTableChildEDNumGet
                0x000000002017d0a0       0x44 /cygdrive/c/Users/huangli/AppData/Local/Temp/concurrent_sampleLight_b92.elf.60zuQo.ltrans4.ltrans.o
                0x000000002017d0a0                tl_zbNeighborTableChildEDNumGet
 .text.tl_zbNeighborTabSearchForChildEndDev
                0x000000002017d0e4       0x3c /cygdrive/c/Users/huangli/AppData/Local/Temp/concurrent_sampleLight_b92.elf.60zuQo.ltrans4.ltrans.o
                0x000000002017d0e4                tl_zbNeighborTabSearchForChildEndDev
 .text.nwkBrcMsgAllDevicesCb
                0x000000002017d120       0xc6 /cygdrive/c/Users/huangli/AppData/Local/Temp/concurrent_sampleLight_b92.elf.60zuQo.ltrans4.ltrans.o
 *fill*         0x000000002017d1e6        0x2 
 .text.nwk_neTblGetByShortAddr
                0x000000002017d1e8       0x5e /cygdrive/c/Users/huangli/AppData/Local/Temp/concurrent_sampleLight_b92.elf.60zuQo.ltrans4.ltrans.o
                0x000000002017d1e8                nwk_neTblGetByShortAddr
 *fill*         0x000000002017d246        0x2 
 .text.nwkBrcMsgAddSender
                0x000000002017d248       0x8e /cygdrive/c/Users/huangli/AppData/Local/Temp/concurrent_sampleLight_b92.elf.60zuQo.ltrans4.ltrans.o
 *fill*         0x000000002017d2d6        0x2 
 .text.nwk_fwdPacket
                0x000000002017d2d8      0x7d0 /cygdrive/c/Users/huangli/AppData/Local/Temp/concurrent_sampleLight_b92.elf.60zuQo.ltrans4.ltrans.o
                0x000000002017d2d8                nwk_fwdPacket
 .text.tl_zbNwkSendLinkStatus
                0x000000002017daa8      0x4a2 /cygdrive/c/Users/huangli/AppData/Local/Temp/concurrent_sampleLight_b92.elf.60zuQo.ltrans4.ltrans.o
                0x000000002017daa8                tl_zbNwkSendLinkStatus
 *fill*         0x000000002017df4a        0x2 
 .text.tl_zbNwkLinkStatusTimerEvtCb
                0x000000002017df4c      0x108 /cygdrive/c/Users/huangli/AppData/Local/Temp/concurrent_sampleLight_b92.elf.60zuQo.ltrans4.ltrans.o
 .text.nwkMsgSendCb
                0x000000002017e054       0x42 /cygdrive/c/Users/huangli/AppData/Local/Temp/concurrent_sampleLight_b92.elf.60zuQo.ltrans4.ltrans.o
                0x000000002017e054                nwkMsgSendCb
 *fill*         0x000000002017e096        0x2 
 .text.nwkMsgSendCbDelay
                0x000000002017e098       0x12 /cygdrive/c/Users/huangli/AppData/Local/Temp/concurrent_sampleLight_b92.elf.60zuQo.ltrans4.ltrans.o
 *fill*         0x000000002017e0aa        0x2 
 .text.tl_zbNwkNldeDataRequestHandler
                0x000000002017e0ac      0x1c6 /cygdrive/c/Users/huangli/AppData/Local/Temp/concurrent_sampleLight_b92.elf.60zuQo.ltrans4.ltrans.o
                0x000000002017e0ac                tl_zbNwkNldeDataRequestHandler
 *fill*         0x000000002017e272        0x2 
 .text.nwkLeaveReqSend
                0x000000002017e274      0x10c /cygdrive/c/Users/huangli/AppData/Local/Temp/concurrent_sampleLight_b92.elf.60zuQo.ltrans4.ltrans.o
                0x000000002017e274                nwkLeaveReqSend
 .text.nwkLeaveReqStart
                0x000000002017e380      0x104 /cygdrive/c/Users/huangli/AppData/Local/Temp/concurrent_sampleLight_b92.elf.60zuQo.ltrans4.ltrans.o
 .text.tl_zbMacMlmeBeaconNotifyIndicationHandler
                0x000000002017e484      0x5fe /cygdrive/c/Users/huangli/AppData/Local/Temp/concurrent_sampleLight_b92.elf.60zuQo.ltrans4.ltrans.o
                0x000000002017e484                tl_zbMacMlmeBeaconNotifyIndicationHandler
 *fill*         0x000000002017ea82        0x2 
 .text.tl_zbNwkBeaconPayloadUpdate
                0x000000002017ea84      0x13c /cygdrive/c/Users/huangli/AppData/Local/Temp/concurrent_sampleLight_b92.elf.60zuQo.ltrans4.ltrans.o
                0x000000002017ea84                tl_zbNwkBeaconPayloadUpdate
 .text.tl_zbMacMlmeStartConfirmHandler
                0x000000002017ebc0      0x248 /cygdrive/c/Users/huangli/AppData/Local/Temp/concurrent_sampleLight_b92.elf.60zuQo.ltrans4.ltrans.o
                0x000000002017ebc0                tl_zbMacMlmeStartConfirmHandler
 .text.tl_zbMacMcpsDataConfirmHandler
                0x000000002017ee08      0x56e /cygdrive/c/Users/huangli/AppData/Local/Temp/concurrent_sampleLight_b92.elf.60zuQo.ltrans4.ltrans.o
                0x000000002017ee08                tl_zbMacMcpsDataConfirmHandler
 *fill*         0x000000002017f376        0x2 
 .text.tl_zbMacMlmeCommStatusIndicationHandler
                0x000000002017f378      0x16e /cygdrive/c/Users/huangli/AppData/Local/Temp/concurrent_sampleLight_b92.elf.60zuQo.ltrans4.ltrans.o
                0x000000002017f378                tl_zbMacMlmeCommStatusIndicationHandler
 *fill*         0x000000002017f4e6        0x2 
 .text.nwk_neTblGetByExtAddr
                0x000000002017f4e8       0x48 /cygdrive/c/Users/huangli/AppData/Local/Temp/concurrent_sampleLight_b92.elf.60zuQo.ltrans4.ltrans.o
                0x000000002017f4e8                nwk_neTblGetByExtAddr
 .text.tl_zbNwkNlmeLeaveRequestHandler
                0x000000002017f530      0x120 /cygdrive/c/Users/huangli/AppData/Local/Temp/concurrent_sampleLight_b92.elf.60zuQo.ltrans4.ltrans.o
                0x000000002017f530                tl_zbNwkNlmeLeaveRequestHandler
 .text.tl_zbNeighborTableDelete
                0x000000002017f650      0x152 /cygdrive/c/Users/huangli/AppData/Local/Temp/concurrent_sampleLight_b92.elf.60zuQo.ltrans4.ltrans.o
                0x000000002017f650                tl_zbNeighborTableDelete
 *fill*         0x000000002017f7a2        0x2 
 .text.nwkNebManagePeriodic
                0x000000002017f7a4       0xfc /cygdrive/c/Users/huangli/AppData/Local/Temp/concurrent_sampleLight_b92.elf.60zuQo.ltrans4.ltrans.o
                0x000000002017f7a4                nwkNebManagePeriodic
 .text.tl_zbNeighborTableUpdate
                0x000000002017f8a0      0x23a /cygdrive/c/Users/huangli/AppData/Local/Temp/concurrent_sampleLight_b92.elf.60zuQo.ltrans4.ltrans.o
                0x000000002017f8a0                tl_zbNeighborTableUpdate
 *fill*         0x000000002017fada        0x2 
 .text.tl_zbMacMlmeScanConfirmHandler
                0x000000002017fadc      0x462 /cygdrive/c/Users/huangli/AppData/Local/Temp/concurrent_sampleLight_b92.elf.60zuQo.ltrans4.ltrans.o
                0x000000002017fadc                tl_zbMacMlmeScanConfirmHandler
 *fill*         0x000000002017ff3e        0x2 
 .text.tl_zbMacMcpsDataIndicationHandler
                0x000000002017ff40     0x1d92 /cygdrive/c/Users/huangli/AppData/Local/Temp/concurrent_sampleLight_b92.elf.60zuQo.ltrans4.ltrans.o
                0x000000002017ff40                tl_zbMacMcpsDataIndicationHandler
 *fill*         0x0000000020181cd2        0x2 
 .text.tl_zbMacMlmeAssociateConfirmHandler
                0x0000000020181cd4      0x1ee /cygdrive/c/Users/huangli/AppData/Local/Temp/concurrent_sampleLight_b92.elf.60zuQo.ltrans4.ltrans.o
                0x0000000020181cd4                tl_zbMacMlmeAssociateConfirmHandler
 *fill*         0x0000000020181ec2        0x2 
 .text.tl_zbNwkNlmeDirectJoinRequestHandler
                0x0000000020181ec4      0x172 /cygdrive/c/Users/huangli/AppData/Local/Temp/concurrent_sampleLight_b92.elf.60zuQo.ltrans4.ltrans.o
                0x0000000020181ec4                tl_zbNwkNlmeDirectJoinRequestHandler
 *fill*         0x0000000020182036        0x2 
 .text.tl_zbNeighborTableInit
                0x0000000020182038      0x266 /cygdrive/c/Users/huangli/AppData/Local/Temp/concurrent_sampleLight_b92.elf.60zuQo.ltrans4.ltrans.o
                0x0000000020182038                tl_zbNeighborTableInit
 *fill*         0x000000002018229e        0x2 
 .text.tl_zbNwkInit
                0x00000000201822a0      0x196 /cygdrive/c/Users/huangli/AppData/Local/Temp/concurrent_sampleLight_b92.elf.60zuQo.ltrans4.ltrans.o
                0x00000000201822a0                tl_zbNwkInit
 *fill*         0x0000000020182436        0x2 
 .text.nwk_permitJoinTimeout
                0x0000000020182438       0x1a /cygdrive/c/Users/huangli/AppData/Local/Temp/concurrent_sampleLight_b92.elf.60zuQo.ltrans5.ltrans.o
 *fill*         0x0000000020182452        0x2 
 .text.nwkRoutingTabPeriodic
                0x0000000020182454       0x5e /cygdrive/c/Users/huangli/AppData/Local/Temp/concurrent_sampleLight_b92.elf.60zuQo.ltrans5.ltrans.o
                0x0000000020182454                nwkRoutingTabPeriodic
 *fill*         0x00000000201824b2        0x2 
 .text.apsDuplicatePeriodic
                0x00000000201824b4       0x64 /cygdrive/c/Users/huangli/AppData/Local/Temp/concurrent_sampleLight_b92.elf.60zuQo.ltrans5.ltrans.o
                0x00000000201824b4                apsDuplicatePeriodic
 .text.endDevTimeoutReq
                0x0000000020182518        0x6 /cygdrive/c/Users/huangli/AppData/Local/Temp/concurrent_sampleLight_b92.elf.60zuQo.ltrans5.ltrans.o
 *fill*         0x000000002018251e        0x2 
 .text.zdo_reset_confirm_cb
                0x0000000020182520       0x32 /cygdrive/c/Users/huangli/AppData/Local/Temp/concurrent_sampleLight_b92.elf.60zuQo.ltrans5.ltrans.o
 *fill*         0x0000000020182552        0x2 
 .text.aps_process_group_addressed_packet
                0x0000000020182554       0x60 /cygdrive/c/Users/huangli/AppData/Local/Temp/concurrent_sampleLight_b92.elf.60zuQo.ltrans5.ltrans.o
 .text.zdo_nlme_ed_scan_confirm
                0x00000000201825b4       0x66 /cygdrive/c/Users/huangli/AppData/Local/Temp/concurrent_sampleLight_b92.elf.60zuQo.ltrans5.ltrans.o
                0x00000000201825b4                zdo_nlme_ed_scan_confirm
 *fill*         0x000000002018261a        0x2 
 .text.zdo_nlmePermitJoinCnf
                0x000000002018261c        0xa /cygdrive/c/Users/huangli/AppData/Local/Temp/concurrent_sampleLight_b92.elf.60zuQo.ltrans5.ltrans.o
 *fill*         0x0000000020182626        0x2 
 .text.zdo_routeDiscCnf
                0x0000000020182628        0xa /cygdrive/c/Users/huangli/AppData/Local/Temp/concurrent_sampleLight_b92.elf.60zuQo.ltrans5.ltrans.o
 *fill*         0x0000000020182632        0x2 
 .text.zdo_nlme_direct_join_confirm
                0x0000000020182634        0xa /cygdrive/c/Users/huangli/AppData/Local/Temp/concurrent_sampleLight_b92.elf.60zuQo.ltrans5.ltrans.o
                0x0000000020182634                zdo_nlme_direct_join_confirm
 *fill*         0x000000002018263e        0x2 
 .text.tl_zbMacMlmeResetConfirmHandler
                0x0000000020182640       0xa6 /cygdrive/c/Users/huangli/AppData/Local/Temp/concurrent_sampleLight_b92.elf.60zuQo.ltrans5.ltrans.o
                0x0000000020182640                tl_zbMacMlmeResetConfirmHandler
 *fill*         0x00000000201826e6        0x2 
 .text.tl_zbMacMlmePollIndicationHandler
                0x00000000201826e8      0x132 /cygdrive/c/Users/huangli/AppData/Local/Temp/concurrent_sampleLight_b92.elf.60zuQo.ltrans5.ltrans.o
                0x00000000201826e8                tl_zbMacMlmePollIndicationHandler
 *fill*         0x000000002018281a        0x2 
 .text.tl_zbNwkPanidConflictDoubleCheck.lto_priv.0
                0x000000002018281c       0x36 /cygdrive/c/Users/huangli/AppData/Local/Temp/concurrent_sampleLight_b92.elf.60zuQo.ltrans5.ltrans.o
                0x000000002018281c                tl_zbNwkPanidConflictDoubleCheck.lto_priv.0
 *fill*         0x0000000020182852        0x2 
 .text.tl_zbNwkPanidConflictSetPanidCb
                0x0000000020182854       0x7a /cygdrive/c/Users/huangli/AppData/Local/Temp/concurrent_sampleLight_b92.elf.60zuQo.ltrans5.ltrans.o
                0x0000000020182854                tl_zbNwkPanidConflictSetPanidCb
 *fill*         0x00000000201828ce        0x2 
 .text.zdo_nwkDiscReqTimerCb
                0x00000000201828d0       0x44 /cygdrive/c/Users/huangli/AppData/Local/Temp/concurrent_sampleLight_b92.elf.60zuQo.ltrans5.ltrans.o
 .text.zdo_nlme_network_discovery_confirm_cb
                0x0000000020182914       0x74 /cygdrive/c/Users/huangli/AppData/Local/Temp/concurrent_sampleLight_b92.elf.60zuQo.ltrans5.ltrans.o
                0x0000000020182914                zdo_nlme_network_discovery_confirm_cb
 .text.tl_zbNwkNlmePermitJoiningRequestHandler
                0x0000000020182988       0xec /cygdrive/c/Users/huangli/AppData/Local/Temp/concurrent_sampleLight_b92.elf.60zuQo.ltrans5.ltrans.o
                0x0000000020182988                tl_zbNwkNlmePermitJoiningRequestHandler
 .text.apsDataFragmentRcvWinClear
                0x0000000020182a74       0xd0 /cygdrive/c/Users/huangli/AppData/Local/Temp/concurrent_sampleLight_b92.elf.60zuQo.ltrans5.ltrans.o
 .text.aps_deliver_group_msg
                0x0000000020182b44      0x1aa /cygdrive/c/Users/huangli/AppData/Local/Temp/concurrent_sampleLight_b92.elf.60zuQo.ltrans5.ltrans.o
 *fill*         0x0000000020182cee        0x2 
 .text.nwkRouteReqInitialRetry
                0x0000000020182cf0       0xa2 /cygdrive/c/Users/huangli/AppData/Local/Temp/concurrent_sampleLight_b92.elf.60zuQo.ltrans5.ltrans.o
 *fill*         0x0000000020182d92        0x2 
 .text.nwkRouteReqRetry
                0x0000000020182d94       0xb2 /cygdrive/c/Users/huangli/AppData/Local/Temp/concurrent_sampleLight_b92.elf.60zuQo.ltrans5.ltrans.o
                0x0000000020182d94                nwkRouteReqRetry
 *fill*         0x0000000020182e46        0x2 
 .text.nwkRouteReplySendDelay
                0x0000000020182e48      0x1f0 /cygdrive/c/Users/huangli/AppData/Local/Temp/concurrent_sampleLight_b92.elf.60zuQo.ltrans5.ltrans.o
                0x0000000020182e48                nwkRouteReplySendDelay
 .text.aps_bindingTblSave2Flash
                0x0000000020183038       0x44 /cygdrive/c/Users/huangli/AppData/Local/Temp/concurrent_sampleLight_b92.elf.60zuQo.ltrans5.ltrans.o
                0x0000000020183038                aps_bindingTblSave2Flash
 .text.zdo_change_channel_cb.lto_priv.0
                0x000000002018307c       0x50 /cygdrive/c/Users/huangli/AppData/Local/Temp/concurrent_sampleLight_b92.elf.60zuQo.ltrans5.ltrans.o
                0x000000002018307c                zdo_change_channel_cb.lto_priv.0
 .text.tl_zbNwkNlmeResetRequestHandler
                0x00000000201830cc       0x8e /cygdrive/c/Users/huangli/AppData/Local/Temp/concurrent_sampleLight_b92.elf.60zuQo.ltrans5.ltrans.o
                0x00000000201830cc                tl_zbNwkNlmeResetRequestHandler
 *fill*         0x000000002018315a        0x2 
 .text.nwkRouteDiscTabEntryClear
                0x000000002018315c       0x78 /cygdrive/c/Users/huangli/AppData/Local/Temp/concurrent_sampleLight_b92.elf.60zuQo.ltrans5.ltrans.o
 .text.ss_devKeyPairTimeoutCb
                0x00000000201831d4       0x28 /cygdrive/c/Users/huangli/AppData/Local/Temp/concurrent_sampleLight_b92.elf.60zuQo.ltrans5.ltrans.o
 .text.ss_zdoTransportKeyIndHandle
                0x00000000201831fc      0x308 /cygdrive/c/Users/huangli/AppData/Local/Temp/concurrent_sampleLight_b92.elf.60zuQo.ltrans5.ltrans.o
 .text.ss_zdoRemoveDeviceIndHandle
                0x0000000020183504       0x90 /cygdrive/c/Users/huangli/AppData/Local/Temp/concurrent_sampleLight_b92.elf.60zuQo.ltrans5.ltrans.o
 .text.aps_hdr_parse
                0x0000000020183594      0x116 /cygdrive/c/Users/huangli/AppData/Local/Temp/concurrent_sampleLight_b92.elf.60zuQo.ltrans5.ltrans.o
 *fill*         0x00000000201836aa        0x2 
 .text.aps_interPanDataIndCb
                0x00000000201836ac      0x11e /cygdrive/c/Users/huangli/AppData/Local/Temp/concurrent_sampleLight_b92.elf.60zuQo.ltrans5.ltrans.o
                0x00000000201836ac                aps_interPanDataIndCb
 *fill*         0x00000000201837ca        0x2 
 .text.aps_ack_send
                0x00000000201837cc      0x25c /cygdrive/c/Users/huangli/AppData/Local/Temp/concurrent_sampleLight_b92.elf.60zuQo.ltrans5.ltrans.o
 .text.aps_indPrimBuild
                0x0000000020183a28       0xf2 /cygdrive/c/Users/huangli/AppData/Local/Temp/concurrent_sampleLight_b92.elf.60zuQo.ltrans5.ltrans.o
 *fill*         0x0000000020183b1a        0x2 
 .text.apsRcvingWindowHandling
                0x0000000020183b1c      0x176 /cygdrive/c/Users/huangli/AppData/Local/Temp/concurrent_sampleLight_b92.elf.60zuQo.ltrans5.ltrans.o
 *fill*         0x0000000020183c92        0x2 
 .text.aps_data_fragment_process_timeout
                0x0000000020183c94       0x94 /cygdrive/c/Users/huangli/AppData/Local/Temp/concurrent_sampleLight_b92.elf.60zuQo.ltrans5.ltrans.o
 .text.aps_conf
                0x0000000020183d28       0xc6 /cygdrive/c/Users/huangli/AppData/Local/Temp/concurrent_sampleLight_b92.elf.60zuQo.ltrans5.ltrans.o
 *fill*         0x0000000020183dee        0x2 
 .text.aps_txCacheConfirm
                0x0000000020183df0      0x2ba /cygdrive/c/Users/huangli/AppData/Local/Temp/concurrent_sampleLight_b92.elf.60zuQo.ltrans5.ltrans.o
 *fill*         0x00000000201840aa        0x2 
 .text.apsTxDataSendStart
                0x00000000201840ac      0x128 /cygdrive/c/Users/huangli/AppData/Local/Temp/concurrent_sampleLight_b92.elf.60zuQo.ltrans5.ltrans.o
 .text.apsTxEventPost
                0x00000000201841d4       0xce /cygdrive/c/Users/huangli/AppData/Local/Temp/concurrent_sampleLight_b92.elf.60zuQo.ltrans5.ltrans.o
 *fill*         0x00000000201842a2        0x2 
 .text.aps_nwk_data_confirm_cb
                0x00000000201842a4       0xb4 /cygdrive/c/Users/huangli/AppData/Local/Temp/concurrent_sampleLight_b92.elf.60zuQo.ltrans5.ltrans.o
                0x00000000201842a4                aps_nwk_data_confirm_cb
 .text.apsAckPeriodic
                0x0000000020184358       0x9a /cygdrive/c/Users/huangli/AppData/Local/Temp/concurrent_sampleLight_b92.elf.60zuQo.ltrans5.ltrans.o
                0x0000000020184358                apsAckPeriodic
 *fill*         0x00000000201843f2        0x2 
 .text.aps_nwk_addr_req_cb
                0x00000000201843f4       0x86 /cygdrive/c/Users/huangli/AppData/Local/Temp/concurrent_sampleLight_b92.elf.60zuQo.ltrans5.ltrans.o
 *fill*         0x000000002018447a        0x2 
 .text.apsDataFragmentReSend.part.0
                0x000000002018447c       0x56 /cygdrive/c/Users/huangli/AppData/Local/Temp/concurrent_sampleLight_b92.elf.60zuQo.ltrans5.ltrans.o
 *fill*         0x00000000201844d2        0x2 
 .text.aps_nwk_data_indication_cb
                0x00000000201844d4      0x258 /cygdrive/c/Users/huangli/AppData/Local/Temp/concurrent_sampleLight_b92.elf.60zuQo.ltrans5.ltrans.o
                0x00000000201844d4                aps_nwk_data_indication_cb
 .text.aps_data_fragment_delay
                0x000000002018472c       0x40 /cygdrive/c/Users/huangli/AppData/Local/Temp/concurrent_sampleLight_b92.elf.60zuQo.ltrans5.ltrans.o
 .text.apsTxDataPost
                0x000000002018476c      0x140 /cygdrive/c/Users/huangli/AppData/Local/Temp/concurrent_sampleLight_b92.elf.60zuQo.ltrans5.ltrans.o
 .text.zdo_nlme_start_router_confirm
                0x00000000201848ac       0x6a /cygdrive/c/Users/huangli/AppData/Local/Temp/concurrent_sampleLight_b92.elf.60zuQo.ltrans5.ltrans.o
                0x00000000201848ac                zdo_nlme_start_router_confirm
 *fill*         0x0000000020184916        0x2 
 .text.zdo_network_formation_confirm
                0x0000000020184918       0x6a /cygdrive/c/Users/huangli/AppData/Local/Temp/concurrent_sampleLight_b92.elf.60zuQo.ltrans5.ltrans.o
                0x0000000020184918                zdo_network_formation_confirm
 *fill*         0x0000000020184982        0x2 
 .text.zdo_auth_check_timer_cb
                0x0000000020184984       0x58 /cygdrive/c/Users/huangli/AppData/Local/Temp/concurrent_sampleLight_b92.elf.60zuQo.ltrans5.ltrans.o
 .text.zdo_nlme_join_confirm
                0x00000000201849dc      0x218 /cygdrive/c/Users/huangli/AppData/Local/Temp/concurrent_sampleLight_b92.elf.60zuQo.ltrans5.ltrans.o
                0x00000000201849dc                zdo_nlme_join_confirm
 .text.tl_zbNwkUpdateForPanidConflict.lto_priv.0
                0x0000000020184bf4      0x18e /cygdrive/c/Users/huangli/AppData/Local/Temp/concurrent_sampleLight_b92.elf.60zuQo.ltrans5.ltrans.o
                0x0000000020184bf4                tl_zbNwkUpdateForPanidConflict.lto_priv.0
 *fill*         0x0000000020184d82        0x2 
 .text.nwkTxDataPendTabEntryClear
                0x0000000020184d84       0x5c /cygdrive/c/Users/huangli/AppData/Local/Temp/concurrent_sampleLight_b92.elf.60zuQo.ltrans5.ltrans.o
                0x0000000020184d84                nwkTxDataPendTabEntryClear
 .text.nwkTxDataPendTabEntryFind
                0x0000000020184de0       0x50 /cygdrive/c/Users/huangli/AppData/Local/Temp/concurrent_sampleLight_b92.elf.60zuQo.ltrans5.ltrans.o
                0x0000000020184de0                nwkTxDataPendTabEntryFind
 .text.nwkTxDataCachePacketCopy
                0x0000000020184e30       0xb8 /cygdrive/c/Users/huangli/AppData/Local/Temp/concurrent_sampleLight_b92.elf.60zuQo.ltrans5.ltrans.o
                0x0000000020184e30                nwkTxDataCachePacketCopy
 .text.nwkRouteDiscEntryCreate
                0x0000000020184ee8       0x6a /cygdrive/c/Users/huangli/AppData/Local/Temp/concurrent_sampleLight_b92.elf.60zuQo.ltrans5.ltrans.o
                0x0000000020184ee8                nwkRouteDiscEntryCreate
 *fill*         0x0000000020184f52        0x2 
 .text.nwkConcentDiscTimerCb
                0x0000000020184f54      0x1f6 /cygdrive/c/Users/huangli/AppData/Local/Temp/concurrent_sampleLight_b92.elf.60zuQo.ltrans5.ltrans.o
 *fill*         0x000000002018514a        0x2 
 .text.nwkDiscDataPendSend.lto_priv.0
                0x000000002018514c      0x118 /cygdrive/c/Users/huangli/AppData/Local/Temp/concurrent_sampleLight_b92.elf.60zuQo.ltrans5.ltrans.o
                0x000000002018514c                nwkDiscDataPendSend.lto_priv.0
 .text.nwkRouteDiscPeriodic
                0x0000000020185264      0x1f0 /cygdrive/c/Users/huangli/AppData/Local/Temp/concurrent_sampleLight_b92.elf.60zuQo.ltrans5.ltrans.o
                0x0000000020185264                nwkRouteDiscPeriodic
 .text.nwkRoutingTabEntryFind
                0x0000000020185454       0x40 /cygdrive/c/Users/huangli/AppData/Local/Temp/concurrent_sampleLight_b92.elf.60zuQo.ltrans5.ltrans.o
                0x0000000020185454                nwkRoutingTabEntryFind
 .text.nwkRoutingTabEntryCreate
                0x0000000020185494       0xf0 /cygdrive/c/Users/huangli/AppData/Local/Temp/concurrent_sampleLight_b92.elf.60zuQo.ltrans5.ltrans.o
                0x0000000020185494                nwkRoutingTabEntryCreate
 .text.nwkRouteDiscStart
                0x0000000020185584      0x4ee /cygdrive/c/Users/huangli/AppData/Local/Temp/concurrent_sampleLight_b92.elf.60zuQo.ltrans5.ltrans.o
                0x0000000020185584                nwkRouteDiscStart
 *fill*         0x0000000020185a72        0x2 
 .text.tl_zbNwkNlmeRouteDiscRequestHandler
                0x0000000020185a74       0xa8 /cygdrive/c/Users/huangli/AppData/Local/Temp/concurrent_sampleLight_b92.elf.60zuQo.ltrans5.ltrans.o
                0x0000000020185a74                tl_zbNwkNlmeRouteDiscRequestHandler
 .text.nwkRoutingTabEntryDstDel
                0x0000000020185b1c       0x6a /cygdrive/c/Users/huangli/AppData/Local/Temp/concurrent_sampleLight_b92.elf.60zuQo.ltrans5.ltrans.o
                0x0000000020185b1c                nwkRoutingTabEntryDstDel
 *fill*         0x0000000020185b86        0x2 
 .text.ss_devKeyPairFind
                0x0000000020185b88      0x124 /cygdrive/c/Users/huangli/AppData/Local/Temp/concurrent_sampleLight_b92.elf.60zuQo.ltrans5.ltrans.o
                0x0000000020185b88                ss_devKeyPairFind
 .text.ss_ccmEncryption
                0x0000000020185cac       0x76 /cygdrive/c/Users/huangli/AppData/Local/Temp/concurrent_sampleLight_b92.elf.60zuQo.ltrans5.ltrans.o
                0x0000000020185cac                ss_ccmEncryption
 *fill*         0x0000000020185d22        0x2 
 .text.ss_ccmDecryption
                0x0000000020185d24       0x80 /cygdrive/c/Users/huangli/AppData/Local/Temp/concurrent_sampleLight_b92.elf.60zuQo.ltrans5.ltrans.o
                0x0000000020185d24                ss_ccmDecryption
 .text.ss_zdoChildTableStore
                0x0000000020185da4       0x90 /cygdrive/c/Users/huangli/AppData/Local/Temp/concurrent_sampleLight_b92.elf.60zuQo.ltrans5.ltrans.o
                0x0000000020185da4                ss_zdoChildTableStore
 .text.zdo_nlme_join_indication
                0x0000000020185e34      0x20e /cygdrive/c/Users/huangli/AppData/Local/Temp/concurrent_sampleLight_b92.elf.60zuQo.ltrans5.ltrans.o
                0x0000000020185e34                zdo_nlme_join_indication
 *fill*         0x0000000020186042        0x2 
 .text.ss_zdoNwkKeySwitch
                0x0000000020186044       0xcc /cygdrive/c/Users/huangli/AppData/Local/Temp/concurrent_sampleLight_b92.elf.60zuQo.ltrans5.ltrans.o
                0x0000000020186044                ss_zdoNwkKeySwitch
 .text.ss_zdoInit
                0x0000000020186110      0x1c6 /cygdrive/c/Users/huangli/AppData/Local/Temp/concurrent_sampleLight_b92.elf.60zuQo.ltrans5.ltrans.o
                0x0000000020186110                ss_zdoInit
 *fill*         0x00000000201862d6        0x2 
 .text.ss_securityModeSet
                0x00000000201862d8       0xe8 /cygdrive/c/Users/huangli/AppData/Local/Temp/concurrent_sampleLight_b92.elf.60zuQo.ltrans5.ltrans.o
                0x00000000201862d8                ss_securityModeSet
 .text.aps_duplicate_check
                0x00000000201863c0       0xa8 /cygdrive/c/Users/huangli/AppData/Local/Temp/concurrent_sampleLight_b92.elf.60zuQo.ltrans5.ltrans.o
                0x00000000201863c0                aps_duplicate_check
 .text.apsDataRequest
                0x0000000020186468      0x120 /cygdrive/c/Users/huangli/AppData/Local/Temp/concurrent_sampleLight_b92.elf.60zuQo.ltrans5.ltrans.o
                0x0000000020186468                apsDataRequest
 .text.aps_data_fragment.lto_priv.0
                0x0000000020186588      0x16c /cygdrive/c/Users/huangli/AppData/Local/Temp/concurrent_sampleLight_b92.elf.60zuQo.ltrans5.ltrans.o
                0x0000000020186588                aps_data_fragment.lto_priv.0
 .text.aps_bindingTblMatch
                0x00000000201866f4       0xc0 /cygdrive/c/Users/huangli/AppData/Local/Temp/concurrent_sampleLight_b92.elf.60zuQo.ltrans5.ltrans.o
                0x00000000201866f4                aps_bindingTblMatch
 .text.aps_bindingTblEntryDel
                0x00000000201867b4       0x82 /cygdrive/c/Users/huangli/AppData/Local/Temp/concurrent_sampleLight_b92.elf.60zuQo.ltrans5.ltrans.o
                0x00000000201867b4                aps_bindingTblEntryDel
 *fill*         0x0000000020186836        0x2 
 .text.zdo_nlmeForgetDev
                0x0000000020186838      0x128 /cygdrive/c/Users/huangli/AppData/Local/Temp/concurrent_sampleLight_b92.elf.60zuQo.ltrans5.ltrans.o
 .text.zdo_nlme_leave_indication_cb
                0x0000000020186960       0xf4 /cygdrive/c/Users/huangli/AppData/Local/Temp/concurrent_sampleLight_b92.elf.60zuQo.ltrans5.ltrans.o
                0x0000000020186960                zdo_nlme_leave_indication_cb
 .text.zdo_nlme_leave_confirm_cb
                0x0000000020186a54       0xf8 /cygdrive/c/Users/huangli/AppData/Local/Temp/concurrent_sampleLight_b92.elf.60zuQo.ltrans5.ltrans.o
                0x0000000020186a54                zdo_nlme_leave_confirm_cb
 .text.aps_me_init
                0x0000000020186b4c      0x4ae /cygdrive/c/Users/huangli/AppData/Local/Temp/concurrent_sampleLight_b92.elf.60zuQo.ltrans5.ltrans.o
                0x0000000020186b4c                aps_me_init
 *fill*         0x0000000020186ffa        0x2 
 .text.zdo_nwkRejoinReqSend.lto_priv.0
                0x0000000020186ffc      0x104 /cygdrive/c/Users/huangli/AppData/Local/Temp/concurrent_sampleLight_b92.elf.60zuQo.ltrans5.ltrans.o
                0x0000000020186ffc                zdo_nwkRejoinReqSend.lto_priv.0
 .text.zdo_nwkRejoinStart
                0x0000000020187100       0x92 /cygdrive/c/Users/huangli/AppData/Local/Temp/concurrent_sampleLight_b92.elf.60zuQo.ltrans5.ltrans.o
                0x0000000020187100                zdo_nwkRejoinStart
 *fill*         0x0000000020187192        0x2 
 .text.ss_zdoInsecureRejoin
                0x0000000020187194       0x90 /cygdrive/c/Users/huangli/AppData/Local/Temp/concurrent_sampleLight_b92.elf.60zuQo.ltrans5.ltrans.o
 .text.zdo_selfLeaveProcessCb
                0x0000000020187224      0x130 /cygdrive/c/Users/huangli/AppData/Local/Temp/concurrent_sampleLight_b92.elf.60zuQo.ltrans5.ltrans.o
 .text.zdo_send_req
                0x0000000020187354       0xe2 /cygdrive/c/Users/huangli/AppData/Local/Temp/concurrent_sampleLight_b92.elf.60zuQo.ltrans5.ltrans.o
                0x0000000020187354                zdo_send_req
 *fill*         0x0000000020187436        0x2 
 .text.apsParentAnncePeriodic
                0x0000000020187438      0x178 /cygdrive/c/Users/huangli/AppData/Local/Temp/concurrent_sampleLight_b92.elf.60zuQo.ltrans5.ltrans.o
                0x0000000020187438                apsParentAnncePeriodic
 .text.zdp_data_send
                0x00000000201875b0      0x170 /cygdrive/c/Users/huangli/AppData/Local/Temp/concurrent_sampleLight_b92.elf.60zuQo.ltrans5.ltrans.o
                0x00000000201875b0                zdp_data_send
 .text.aps_txCacheAsNoShortAddr
                0x0000000020187720       0x5e /cygdrive/c/Users/huangli/AppData/Local/Temp/concurrent_sampleLight_b92.elf.60zuQo.ltrans5.ltrans.o
 *fill*         0x000000002018777e        0x2 
 .text.aps_data_request
                0x0000000020187780      0x5fe /cygdrive/c/Users/huangli/AppData/Local/Temp/concurrent_sampleLight_b92.elf.60zuQo.ltrans5.ltrans.o
 *fill*         0x0000000020187d7e        0x2 
 .text.bindingTxBack
                0x0000000020187d80      0x200 /cygdrive/c/Users/huangli/AppData/Local/Temp/concurrent_sampleLight_b92.elf.60zuQo.ltrans5.ltrans.o
 .text.aps_cmd_send
                0x0000000020187f80      0x3ea /cygdrive/c/Users/huangli/AppData/Local/Temp/concurrent_sampleLight_b92.elf.60zuQo.ltrans5.ltrans.o
 *fill*         0x000000002018836a        0x2 
 .text.ss_apsmeRequestKeyReq
                0x000000002018836c       0xec /cygdrive/c/Users/huangli/AppData/Local/Temp/concurrent_sampleLight_b92.elf.60zuQo.ltrans5.ltrans.o
                0x000000002018836c                ss_apsmeRequestKeyReq
 .text.ss_apsmeUpdateDevReqSend
                0x0000000020188458       0x76 /cygdrive/c/Users/huangli/AppData/Local/Temp/concurrent_sampleLight_b92.elf.60zuQo.ltrans5.ltrans.o
 *fill*         0x00000000201884ce        0x2 
 .text.updateDeviceSendAgain
                0x00000000201884d0       0x14 /cygdrive/c/Users/huangli/AppData/Local/Temp/concurrent_sampleLight_b92.elf.60zuQo.ltrans5.ltrans.o
 .text.ss_apsmeUpdateDevReq
                0x00000000201884e4       0x68 /cygdrive/c/Users/huangli/AppData/Local/Temp/concurrent_sampleLight_b92.elf.60zuQo.ltrans5.ltrans.o
 .text.ss_apsmeTransportKeyReq
                0x000000002018854c      0x258 /cygdrive/c/Users/huangli/AppData/Local/Temp/concurrent_sampleLight_b92.elf.60zuQo.ltrans5.ltrans.o
 .text.ss_apsmeVerifyKeyReq
                0x00000000201887a4       0xf0 /cygdrive/c/Users/huangli/AppData/Local/Temp/concurrent_sampleLight_b92.elf.60zuQo.ltrans5.ltrans.o
 .text.aps_data_indication_process
                0x0000000020188894     0x1054 /cygdrive/c/Users/huangli/AppData/Local/Temp/concurrent_sampleLight_b92.elf.60zuQo.ltrans5.ltrans.o
 .text.zdo_devAnnce
                0x00000000201898e8       0x9e /cygdrive/c/Users/huangli/AppData/Local/Temp/concurrent_sampleLight_b92.elf.60zuQo.ltrans5.ltrans.o
                0x00000000201898e8                zdo_devAnnce
 *fill*         0x0000000020189986        0x2 
 .text.zdo_nlme_status_indication
                0x0000000020189988      0x1ca /cygdrive/c/Users/huangli/AppData/Local/Temp/concurrent_sampleLight_b92.elf.60zuQo.ltrans5.ltrans.o
                0x0000000020189988                zdo_nlme_status_indication
 *fill*         0x0000000020189b52        0x2 
 .text.zdo_startup_complete
                0x0000000020189b54      0x126 /cygdrive/c/Users/huangli/AppData/Local/Temp/concurrent_sampleLight_b92.elf.60zuQo.ltrans5.ltrans.o
 *fill*         0x0000000020189c7a        0x2 
 .text.secondClockPeriodic
                0x0000000020189c7c       0x50 /cygdrive/c/Users/huangli/AppData/Local/Temp/concurrent_sampleLight_b92.elf.60zuQo.ltrans6.ltrans.o
                0x0000000020189c7c                secondClockPeriodic
 .text.zdo_cluster_list_match_process.constprop.0
                0x0000000020189ccc       0x6a /cygdrive/c/Users/huangli/AppData/Local/Temp/concurrent_sampleLight_b92.elf.60zuQo.ltrans6.ltrans.o
 *fill*         0x0000000020189d36        0x2 
 .text.zb_factoryResetNotify
                0x0000000020189d38       0x3a /cygdrive/c/Users/huangli/AppData/Local/Temp/concurrent_sampleLight_b92.elf.60zuQo.ltrans6.ltrans.o
 *fill*         0x0000000020189d72        0x2 
 .text.zdo_nwkAddrIndicate
                0x0000000020189d74       0x12 /cygdrive/c/Users/huangli/AppData/Local/Temp/concurrent_sampleLight_b92.elf.60zuQo.ltrans6.ltrans.o
                0x0000000020189d74                zdo_nwkAddrIndicate
 *fill*         0x0000000020189d86        0x2 
 .text.zdo_ieeeAddrIndicate
                0x0000000020189d88       0x12 /cygdrive/c/Users/huangli/AppData/Local/Temp/concurrent_sampleLight_b92.elf.60zuQo.ltrans6.ltrans.o
                0x0000000020189d88                zdo_ieeeAddrIndicate
 *fill*         0x0000000020189d9a        0x2 
 .text.gp_gpdfTransSchedule.constprop.0
                0x0000000020189d9c      0x264 /cygdrive/c/Users/huangli/AppData/Local/Temp/concurrent_sampleLight_b92.elf.60zuQo.ltrans6.ltrans.o
 .text.zdo_parentAnnounceIndicate
                0x000000002018a000       0x36 /cygdrive/c/Users/huangli/AppData/Local/Temp/concurrent_sampleLight_b92.elf.60zuQo.ltrans6.ltrans.o
                0x000000002018a000                zdo_parentAnnounceIndicate
 *fill*         0x000000002018a036        0x2 
 .text.zdo_deviceAnnounceIndicate
                0x000000002018a038      0x2e0 /cygdrive/c/Users/huangli/AppData/Local/Temp/concurrent_sampleLight_b92.elf.60zuQo.ltrans6.ltrans.o
                0x000000002018a038                zdo_deviceAnnounceIndicate
 .text.zdo_descriptorsIndicate
                0x000000002018a318      0x27c /cygdrive/c/Users/huangli/AppData/Local/Temp/concurrent_sampleLight_b92.elf.60zuQo.ltrans6.ltrans.o
                0x000000002018a318                zdo_descriptorsIndicate
 .text.zdo_activeEpIndicate
                0x000000002018a594      0x110 /cygdrive/c/Users/huangli/AppData/Local/Temp/concurrent_sampleLight_b92.elf.60zuQo.ltrans6.ltrans.o
                0x000000002018a594                zdo_activeEpIndicate
 .text.zdo_matchDescriptorIndicate
                0x000000002018a6a4      0x32a /cygdrive/c/Users/huangli/AppData/Local/Temp/concurrent_sampleLight_b92.elf.60zuQo.ltrans6.ltrans.o
                0x000000002018a6a4                zdo_matchDescriptorIndicate
 *fill*         0x000000002018a9ce        0x2 
 .text.zdo_SysServerDiscoveryIndicate
                0x000000002018a9d0       0xaa /cygdrive/c/Users/huangli/AppData/Local/Temp/concurrent_sampleLight_b92.elf.60zuQo.ltrans6.ltrans.o
                0x000000002018a9d0                zdo_SysServerDiscoveryIndicate
 *fill*         0x000000002018aa7a        0x2 
 .text.zdo_end_device_bind_timeout_cb
                0x000000002018aa7c       0x76 /cygdrive/c/Users/huangli/AppData/Local/Temp/concurrent_sampleLight_b92.elf.60zuQo.ltrans6.ltrans.o
 *fill*         0x000000002018aaf2        0x2 
 .text.zdo_mgmtPermitJoinIndicate
                0x000000002018aaf4       0xd0 /cygdrive/c/Users/huangli/AppData/Local/Temp/concurrent_sampleLight_b92.elf.60zuQo.ltrans6.ltrans.o
                0x000000002018aaf4                zdo_mgmtPermitJoinIndicate
 .text.zdo_nwkUpdateNotifyRespSend
                0x000000002018abc4       0xfc /cygdrive/c/Users/huangli/AppData/Local/Temp/concurrent_sampleLight_b92.elf.60zuQo.ltrans6.ltrans.o
                0x000000002018abc4                zdo_nwkUpdateNotifyRespSend
 .text.zdo_mgmtNwkUpdateIndicate
                0x000000002018acc0      0x1e0 /cygdrive/c/Users/huangli/AppData/Local/Temp/concurrent_sampleLight_b92.elf.60zuQo.ltrans6.ltrans.o
                0x000000002018acc0                zdo_mgmtNwkUpdateIndicate
 .text.zdo_mgmtBindIndicate
                0x000000002018aea0      0x19a /cygdrive/c/Users/huangli/AppData/Local/Temp/concurrent_sampleLight_b92.elf.60zuQo.ltrans6.ltrans.o
                0x000000002018aea0                zdo_mgmtBindIndicate
 *fill*         0x000000002018b03a        0x2 
 .text.zdo_mgmtLqiIndicate
                0x000000002018b03c      0x1de /cygdrive/c/Users/huangli/AppData/Local/Temp/concurrent_sampleLight_b92.elf.60zuQo.ltrans6.ltrans.o
                0x000000002018b03c                zdo_mgmtLqiIndicate
 *fill*         0x000000002018b21a        0x2 
 .text.zdo_mgmtLeaveIndicate
                0x000000002018b21c      0x19e /cygdrive/c/Users/huangli/AppData/Local/Temp/concurrent_sampleLight_b92.elf.60zuQo.ltrans6.ltrans.o
                0x000000002018b21c                zdo_mgmtLeaveIndicate
 *fill*         0x000000002018b3ba        0x2 
 .text.zdo_bind_unbind_req.part.0
                0x000000002018b3bc       0x7c /cygdrive/c/Users/huangli/AppData/Local/Temp/concurrent_sampleLight_b92.elf.60zuQo.ltrans6.ltrans.o
 .text.zdo_bind_unbind_after_toggle.constprop.0
                0x000000002018b438      0x1d8 /cygdrive/c/Users/huangli/AppData/Local/Temp/concurrent_sampleLight_b92.elf.60zuQo.ltrans6.ltrans.o
 .text.zdo_end_device_bind_cb
                0x000000002018b610        0xe /cygdrive/c/Users/huangli/AppData/Local/Temp/concurrent_sampleLight_b92.elf.60zuQo.ltrans6.ltrans.o
 *fill*         0x000000002018b61e        0x2 
 .text.zdo_end_device_unbind_cb
                0x000000002018b620        0xe /cygdrive/c/Users/huangli/AppData/Local/Temp/concurrent_sampleLight_b92.elf.60zuQo.ltrans6.ltrans.o
 *fill*         0x000000002018b62e        0x2 
 .text.zdo_bind_toggle_cb
                0x000000002018b630       0x2c /cygdrive/c/Users/huangli/AppData/Local/Temp/concurrent_sampleLight_b92.elf.60zuQo.ltrans6.ltrans.o
 .text.af_dataCnfHandler
                0x000000002018b65c       0x72 /cygdrive/c/Users/huangli/AppData/Local/Temp/concurrent_sampleLight_b92.elf.60zuQo.ltrans6.ltrans.o
                0x000000002018b65c                af_dataCnfHandler
 *fill*         0x000000002018b6ce        0x2 
 .text.af_aps_data_fragment_entry
                0x000000002018b6d0       0x6e /cygdrive/c/Users/huangli/AppData/Local/Temp/concurrent_sampleLight_b92.elf.60zuQo.ltrans6.ltrans.o
                0x000000002018b6d0                af_aps_data_fragment_entry
 *fill*         0x000000002018b73e        0x2 
 .text.zdo_parentAnnounceIndicateDelay
                0x000000002018b740      0x240 /cygdrive/c/Users/huangli/AppData/Local/Temp/concurrent_sampleLight_b92.elf.60zuQo.ltrans6.ltrans.o
 .text.af_aps_data_entry
                0x000000002018b980      0x16a /cygdrive/c/Users/huangli/AppData/Local/Temp/concurrent_sampleLight_b92.elf.60zuQo.ltrans6.ltrans.o
                0x000000002018b980                af_aps_data_entry
 *fill*         0x000000002018baea        0x2 
 .text.zdo_nwkAddrReqDelayCb
                0x000000002018baec      0x352 /cygdrive/c/Users/huangli/AppData/Local/Temp/concurrent_sampleLight_b92.elf.60zuQo.ltrans6.ltrans.o
 *fill*         0x000000002018be3e        0x2 
 .text.zdo_ieeeAddrReqDelayCb
                0x000000002018be40      0x34c /cygdrive/c/Users/huangli/AppData/Local/Temp/concurrent_sampleLight_b92.elf.60zuQo.ltrans6.ltrans.o
 .text.zdo_bind_toggle_action
                0x000000002018c18c      0x1be /cygdrive/c/Users/huangli/AppData/Local/Temp/concurrent_sampleLight_b92.elf.60zuQo.ltrans6.ltrans.o
 *fill*         0x000000002018c34a        0x2 
 .text.zdo_endDeviceBindIndicate
                0x000000002018c34c      0x23c /cygdrive/c/Users/huangli/AppData/Local/Temp/concurrent_sampleLight_b92.elf.60zuQo.ltrans6.ltrans.o
                0x000000002018c34c                zdo_endDeviceBindIndicate
 .text.cGp_mcpsDataInd
                0x000000002018c588      0x126 /cygdrive/c/Users/huangli/AppData/Local/Temp/concurrent_sampleLight_b92.elf.60zuQo.ltrans6.ltrans.o
                0x000000002018c588                cGp_mcpsDataInd
 *fill*         0x000000002018c6ae        0x2 
 .text.zdoMgmtLeaveCmdProcessCb
                0x000000002018c6b0       0x7a /cygdrive/c/Users/huangli/AppData/Local/Temp/concurrent_sampleLight_b92.elf.60zuQo.ltrans6.ltrans.o
 *fill*         0x000000002018c72a        0x2 
 .text.cGp_dataCnf
                0x000000002018c72c       0x98 /cygdrive/c/Users/huangli/AppData/Local/Temp/concurrent_sampleLight_b92.elf.60zuQo.ltrans6.ltrans.o
                0x000000002018c72c                cGp_dataCnf
 .text.gpDataCnfDeliver
                0x000000002018c7c4       0x92 /cygdrive/c/Users/huangli/AppData/Local/Temp/concurrent_sampleLight_b92.elf.60zuQo.ltrans6.ltrans.o
 *fill*         0x000000002018c856        0x2 
 .text.gpDataReq
                0x000000002018c858      0x1c6 /cygdrive/c/Users/huangli/AppData/Local/Temp/concurrent_sampleLight_b92.elf.60zuQo.ltrans6.ltrans.o
                0x000000002018c858                gpDataReq
 *fill*         0x000000002018ca1e        0x2 
 .text.gpTransmitChannelTimeoutCb.lto_priv.0
                0x000000002018ca20       0x6c /cygdrive/c/Users/huangli/AppData/Local/Temp/concurrent_sampleLight_b92.elf.60zuQo.ltrans6.ltrans.o
                0x000000002018ca20                gpTransmitChannelTimeoutCb.lto_priv.0
 .text.cGp_dataReq
                0x000000002018ca8c       0x88 /cygdrive/c/Users/huangli/AppData/Local/Temp/concurrent_sampleLight_b92.elf.60zuQo.ltrans6.ltrans.o
 .text.gpDataIndSend
                0x000000002018cb14       0x60 /cygdrive/c/Users/huangli/AppData/Local/Temp/concurrent_sampleLight_b92.elf.60zuQo.ltrans6.ltrans.o
 .text.gpSecReqSend
                0x000000002018cb74      0x10c /cygdrive/c/Users/huangli/AppData/Local/Temp/concurrent_sampleLight_b92.elf.60zuQo.ltrans6.ltrans.o
 .text.dGp_dataInd
                0x000000002018cc80      0x4ce /cygdrive/c/Users/huangli/AppData/Local/Temp/concurrent_sampleLight_b92.elf.60zuQo.ltrans6.ltrans.o
 *fill*         0x000000002018d14e        0x2 
 .text.gpDataIndDuplicatePeriodic
                0x000000002018d150       0x70 /cygdrive/c/Users/huangli/AppData/Local/Temp/concurrent_sampleLight_b92.elf.60zuQo.ltrans6.ltrans.o
 .text.zdo_apsmeBindUnBind
                0x000000002018d1c0      0x172 /cygdrive/c/Users/huangli/AppData/Local/Temp/concurrent_sampleLight_b92.elf.60zuQo.ltrans6.ltrans.o
                0x000000002018d1c0                zdo_apsmeBindUnBind
 *fill*         0x000000002018d332        0x2 
 .text.zdo_bindOrUnbindIndicate
                0x000000002018d334       0xa4 /cygdrive/c/Users/huangli/AppData/Local/Temp/concurrent_sampleLight_b92.elf.60zuQo.ltrans6.ltrans.o
                0x000000002018d334                zdo_bindOrUnbindIndicate
 .text.af_dataSend
                0x000000002018d3d8      0x212 /cygdrive/c/Users/huangli/AppData/Local/Temp/concurrent_sampleLight_b92.elf.60zuQo.ltrans6.ltrans.o
                0x000000002018d3d8                af_dataSend
 *fill*         0x000000002018d5ea        0x2 
 .text.zb_factoryReset
                0x000000002018d5ec       0x76 /cygdrive/c/Users/huangli/AppData/Local/Temp/concurrent_sampleLight_b92.elf.60zuQo.ltrans6.ltrans.o
                0x000000002018d5ec                zb_factoryReset
 *fill*         0x000000002018d662        0x2 
 .text.zb_isDeviceFactoryNew
                0x000000002018d664        0xa /cygdrive/c/Users/huangli/AppData/Local/Temp/concurrent_sampleLight_b92.elf.60zuQo.ltrans6.ltrans.o
                0x000000002018d664                zb_isDeviceFactoryNew
 *fill*         0x000000002018d66e        0x2 
 .text.ss_ttlMAC.part.0.constprop.0
                0x000000002018d670       0xb2 /cygdrive/c/Users/huangli/AppData/Local/Temp/concurrent_sampleLight_b92.elf.60zuQo.ltrans6.ltrans.o
                0x000000002018d670                ss_ttlMAC.part.0.constprop.0
 *fill*         0x000000002018d722        0x2 
 .text.ss_apsSecureFrame
                0x000000002018d724      0x1c4 /cygdrive/c/Users/huangli/AppData/Local/Temp/concurrent_sampleLight_b92.elf.60zuQo.ltrans6.ltrans.o
                0x000000002018d724                ss_apsSecureFrame
 .text.tl_zbNwkJoinAccept.constprop.0
                0x000000002018d8e8      0x1ec /cygdrive/c/Users/huangli/AppData/Local/Temp/concurrent_sampleLight_b92.elf.60zuQo.ltrans6.ltrans.o
                0x000000002018d8e8                tl_zbNwkJoinAccept.constprop.0
 .text.nwkReportCmdSend.constprop.0
                0x000000002018dad4       0x82 /cygdrive/c/Users/huangli/AppData/Local/Temp/concurrent_sampleLight_b92.elf.60zuQo.ltrans6.ltrans.o
                0x000000002018dad4                nwkReportCmdSend.constprop.0
 *fill*         0x000000002018db56        0x2 
 .text.crc32_half_cal.constprop.0
                0x000000002018db58       0x26 /cygdrive/c/Users/huangli/AppData/Local/Temp/concurrent_sampleLight_b92.elf.60zuQo.ltrans6.ltrans.o
                0x000000002018db58                crc32_half_cal.constprop.0
 *fill*         0x000000002018db7e        0x2 
 .text.blt_ota_setResult.constprop.0
                0x000000002018db80       0x2e /cygdrive/c/Users/huangli/AppData/Local/Temp/concurrent_sampleLight_b92.elf.60zuQo.ltrans6.ltrans.o
                0x000000002018db80                blt_ota_setResult.constprop.0
 *fill*         0x000000002018dbae        0x2 
 .text.tlk_malloc.constprop.0
                0x000000002018dbb0       0xe2 /cygdrive/c/Users/huangli/AppData/Local/Temp/concurrent_sampleLight_b92.elf.60zuQo.ltrans6.ltrans.o
                0x000000002018dbb0                tlk_malloc.constprop.0
 *fill*         0x000000002018dc92        0x2 
 .text.blt_smp_setPairingBusy.constprop.0
                0x000000002018dc94       0x12 /cygdrive/c/Users/huangli/AppData/Local/Temp/concurrent_sampleLight_b92.elf.60zuQo.ltrans6.ltrans.o
                0x000000002018dc94                blt_smp_setPairingBusy.constprop.0
 *fill*         0x000000002018dca6        0x2 
 .text.blt_gap_regAclConnState.constprop.0
                0x000000002018dca8       0x22 /cygdrive/c/Users/huangli/AppData/Local/Temp/concurrent_sampleLight_b92.elf.60zuQo.ltrans6.ltrans.o
                0x000000002018dca8                blt_gap_regAclConnState.constprop.0
 *fill*         0x000000002018dcca        0x2 
 .text.blt_gap_getSlaveDeviceIndex_by_connIdx.constprop.0
                0x000000002018dccc        0x6 /cygdrive/c/Users/huangli/AppData/Local/Temp/concurrent_sampleLight_b92.elf.60zuQo.ltrans6.ltrans.o
                0x000000002018dccc                blt_gap_getSlaveDeviceIndex_by_connIdx.constprop.0
 *fill*         0x000000002018dcd2        0x2 
 .text.blc_gatt_pushHandleValueNotify.constprop.0
                0x000000002018dcd4       0xa8 /cygdrive/c/Users/huangli/AppData/Local/Temp/concurrent_sampleLight_b92.elf.60zuQo.ltrans6.ltrans.o
                0x000000002018dcd4                blc_gatt_pushHandleValueNotify.constprop.0
 .text.lds_wrapper_attribute_server_write.constprop.0
                0x000000002018dd7c       0x4e /cygdrive/c/Users/huangli/AppData/Local/Temp/concurrent_sampleLight_b92.elf.60zuQo.ltrans6.ltrans.o
                0x000000002018dd7c                lds_wrapper_attribute_server_write.constprop.0
 *fill*         0x000000002018ddca        0x2 
 .text.ldsI2cMasterInit.constprop.0
                0x000000002018ddcc       0xda /cygdrive/c/Users/huangli/AppData/Local/Temp/concurrent_sampleLight_b92.elf.60zuQo.ltrans6.ltrans.o
                0x000000002018ddcc                ldsI2cMasterInit.constprop.0
 *fill*         0x000000002018dea6        0x2 
 .text.ldsMinitrimPwmUpdate.constprop.0
                0x000000002018dea8      0x10e /cygdrive/c/Users/huangli/AppData/Local/Temp/concurrent_sampleLight_b92.elf.60zuQo.ltrans6.ltrans.o
                0x000000002018dea8                ldsMinitrimPwmUpdate.constprop.0
 *fill*         0x000000002018dfb6        0x2 
 .text.ldsMinitrimStart.constprop.0
                0x000000002018dfb8      0x1bc /cygdrive/c/Users/huangli/AppData/Local/Temp/concurrent_sampleLight_b92.elf.60zuQo.ltrans6.ltrans.o
                0x000000002018dfb8                ldsMinitrimStart.constprop.0
 .text.lds_wrapper_attribute_server_read.constprop.0
                0x000000002018e174       0x50 /cygdrive/c/Users/huangli/AppData/Local/Temp/concurrent_sampleLight_b92.elf.60zuQo.ltrans6.ltrans.o
                0x000000002018e174                lds_wrapper_attribute_server_read.constprop.0
 .text.ldsLightEffectMultiStateRecallSaveStateCallback.constprop.0
                0x000000002018e1c4      0x190 /cygdrive/c/Users/huangli/AppData/Local/Temp/concurrent_sampleLight_b92.elf.60zuQo.ltrans6.ltrans.o
                0x000000002018e1c4                ldsLightEffectMultiStateRecallSaveStateCallback.constprop.0
 .text.initLightControlState.constprop.0
                0x000000002018e354      0x124 /cygdrive/c/Users/huangli/AppData/Local/Temp/concurrent_sampleLight_b92.elf.60zuQo.ltrans6.ltrans.o
 .text.init_to_startup.constprop.0
                0x000000002018e478      0x194 /cygdrive/c/Users/huangli/AppData/Local/Temp/concurrent_sampleLight_b92.elf.60zuQo.ltrans6.ltrans.o
                0x000000002018e478                init_to_startup.constprop.0
 .text.ldsLightMultiStateEffect.part.0.constprop.0
                0x000000002018e60c      0x17e /cygdrive/c/Users/huangli/AppData/Local/Temp/concurrent_sampleLight_b92.elf.60zuQo.ltrans6.ltrans.o
                0x000000002018e60c                ldsLightMultiStateEffect.part.0.constprop.0
 *fill*         0x000000002018e78a        0x2 
 .text.light_applyUpdate.constprop.0
                0x000000002018e78c       0xf6 /cygdrive/c/Users/huangli/AppData/Local/Temp/concurrent_sampleLight_b92.elf.60zuQo.ltrans6.ltrans.o
                0x000000002018e78c                light_applyUpdate.constprop.0
 *fill*         0x000000002018e882        0x2 
 .text.light_applyUpdate_16.constprop.0
                0x000000002018e884       0x9c /cygdrive/c/Users/huangli/AppData/Local/Temp/concurrent_sampleLight_b92.elf.60zuQo.ltrans6.ltrans.o
                0x000000002018e884                light_applyUpdate_16.constprop.0
 .text.timer_set_init_tick.constprop.0
                0x000000002018e920       0x1a /cygdrive/c/Users/huangli/AppData/Local/Temp/concurrent_sampleLight_b92.elf.60zuQo.ltrans6.ltrans.o
                0x000000002018e920                timer_set_init_tick.constprop.0
 *fill*         0x000000002018e93a        0x2 
 .text.nv_nwkFrameCountSearch.constprop.0
                0x000000002018e93c      0x11e /cygdrive/c/Users/huangli/AppData/Local/Temp/concurrent_sampleLight_b92.elf.60zuQo.ltrans6.ltrans.o
                0x000000002018e93c                nv_nwkFrameCountSearch.constprop.0
 *fill*         0x000000002018ea5a        0x2 
 .text.tl_zbNwkSendNwkStatusCmd.constprop.0
                0x000000002018ea5c      0x1b0 /cygdrive/c/Users/huangli/AppData/Local/Temp/concurrent_sampleLight_b92.elf.60zuQo.ltrans6.ltrans.o
                0x000000002018ea5c                tl_zbNwkSendNwkStatusCmd.constprop.0
 .text.tl_zbNwkAddrConflictStatusSend.constprop.0
                0x000000002018ec0c       0xf6 /cygdrive/c/Users/huangli/AppData/Local/Temp/concurrent_sampleLight_b92.elf.60zuQo.ltrans6.ltrans.o
                0x000000002018ec0c                tl_zbNwkAddrConflictStatusSend.constprop.0
 *fill*         0x000000002018ed02        0x2 
 .text.nwkRouteReqCmdSend.constprop.0
                0x000000002018ed04       0xa0 /cygdrive/c/Users/huangli/AppData/Local/Temp/concurrent_sampleLight_b92.elf.60zuQo.ltrans6.ltrans.o
                0x000000002018ed04                nwkRouteReqCmdSend.constprop.0
 .text.nwkRouteRecordCmdSend.constprop.0
                0x000000002018eda4       0x6c /cygdrive/c/Users/huangli/AppData/Local/Temp/concurrent_sampleLight_b92.elf.60zuQo.ltrans6.ltrans.o
                0x000000002018eda4                nwkRouteRecordCmdSend.constprop.0
 .text.aes_ccmAuthTran.constprop.1
                0x000000002018ee10      0x1b8 /cygdrive/c/Users/huangli/AppData/Local/Temp/concurrent_sampleLight_b92.elf.60zuQo.ltrans6.ltrans.o
                0x000000002018ee10                aes_ccmAuthTran.constprop.1
 .text.gpCcmStar
                0x000000002018efc8      0x22e /cygdrive/c/Users/huangli/AppData/Local/Temp/concurrent_sampleLight_b92.elf.60zuQo.ltrans6.ltrans.o
 *fill*         0x000000002018f1f6        0x2 
 .text.gpSecRsp
                0x000000002018f1f8      0x2be /cygdrive/c/Users/huangli/AppData/Local/Temp/concurrent_sampleLight_b92.elf.60zuQo.ltrans6.ltrans.o
                0x000000002018f1f8                gpSecRsp
 *fill*         0x000000002018f4b6        0x2 
 .text.drv_generateRandomData.constprop.0
                0x000000002018f4b8       0x4a /cygdrive/c/Users/huangli/AppData/Local/Temp/concurrent_sampleLight_b92.elf.60zuQo.ltrans6.ltrans.o
                0x000000002018f4b8                drv_generateRandomData.constprop.0
 *fill*         0x000000002018f502        0x2 
 .text.zcl_writeRsp.constprop.0
                0x000000002018f504       0xce /cygdrive/c/Users/huangli/AppData/Local/Temp/concurrent_sampleLight_b92.elf.60zuQo.ltrans6.ltrans.o
                0x000000002018f504                zcl_writeRsp.constprop.0
 *fill*         0x000000002018f5d2        0x2 
 .text.nv_sector_read.constprop.0
                0x000000002018f5d4      0x23e /cygdrive/c/Users/huangli/AppData/Local/Temp/concurrent_sampleLight_b92.elf.60zuQo.ltrans6.ltrans.o
                0x000000002018f5d4                nv_sector_read.constprop.0
 *fill*         0x000000002018f812        0x2 
 .text.zcl_sendInterPANCmd.constprop.0.isra.0
                0x000000002018f814       0x98 /cygdrive/c/Users/huangli/AppData/Local/Temp/concurrent_sampleLight_b92.elf.60zuQo.ltrans6.ltrans.o
                0x000000002018f814                zcl_sendInterPANCmd.constprop.0.isra.0
 .text.zcl_gp_notificationCmd.constprop.0.isra.0
                0x000000002018f8ac      0x16c /cygdrive/c/Users/huangli/AppData/Local/Temp/concurrent_sampleLight_b92.elf.60zuQo.ltrans6.ltrans.o
                0x000000002018f8ac                zcl_gp_notificationCmd.constprop.0.isra.0
 .text.zcl_gp_proxyTableRspCmd.constprop.0.isra.0
                0x000000002018fa18       0xa2 /cygdrive/c/Users/huangli/AppData/Local/Temp/concurrent_sampleLight_b92.elf.60zuQo.ltrans6.ltrans.o
                0x000000002018fa18                zcl_gp_proxyTableRspCmd.constprop.0.isra.0
 *fill*         0x000000002018faba        0x2 
 .text.blc_ll_updateConnection.constprop.0
                0x000000002018fabc      0x298 /cygdrive/c/Users/huangli/AppData/Local/Temp/concurrent_sampleLight_b92.elf.60zuQo.ltrans6.ltrans.o
                0x000000002018fabc                blc_ll_updateConnection.constprop.0
 .text.hci_le_phyUpdateComplete_evt.isra.0
                0x000000002018fd54       0x4c /cygdrive/c/Users/huangli/AppData/Local/Temp/concurrent_sampleLight_b92.elf.60zuQo.ltrans7.ltrans.o
 .text.blt_ll_push_hold_data.isra.0
                0x000000002018fda0       0x48 /cygdrive/c/Users/huangli/AppData/Local/Temp/concurrent_sampleLight_b92.elf.60zuQo.ltrans7.ltrans.o
 .text.blt_llms_unknownRsp.isra.0
                0x000000002018fde8       0x42 /cygdrive/c/Users/huangli/AppData/Local/Temp/concurrent_sampleLight_b92.elf.60zuQo.ltrans7.ltrans.o
 *fill*         0x000000002018fe2a        0x2 
 .text.ev_timer_executeCB.constprop.0.isra.0
                0x000000002018fe2c       0x92 /cygdrive/c/Users/huangli/AppData/Local/Temp/concurrent_sampleLight_b92.elf.60zuQo.ltrans7.ltrans.o
 *fill*         0x000000002018febe        0x2 
 .text.sys_exceptionPost.isra.0
                0x000000002018fec0       0x14 /cygdrive/c/Users/huangli/AppData/Local/Temp/concurrent_sampleLight_b92.elf.60zuQo.ltrans7.ltrans.o
                0x000000002018fec0                sys_exceptionPost.isra.0
 .text.bdb_defaultReportingCfg.constprop.0.isra.0
                0x000000002018fed4       0x92 /cygdrive/c/Users/huangli/AppData/Local/Temp/concurrent_sampleLight_b92.elf.60zuQo.ltrans7.ltrans.o
                0x000000002018fed4                bdb_defaultReportingCfg.constprop.0.isra.0
 *fill*         0x000000002018ff66        0x2 
 .text.efuse_calib_adc_vref.constprop.0.isra.0
                0x000000002018ff68       0x56 /cygdrive/c/Users/huangli/AppData/Local/Temp/concurrent_sampleLight_b92.elf.60zuQo.ltrans7.ltrans.o
                0x000000002018ff68                efuse_calib_adc_vref.constprop.0.isra.0
 *fill*         0x000000002018ffbe        0x2 
 .text.blc_ll_setAdvParam.constprop.0.isra.0
                0x000000002018ffc0      0x198 /cygdrive/c/Users/huangli/AppData/Local/Temp/concurrent_sampleLight_b92.elf.60zuQo.ltrans7.ltrans.o
                0x000000002018ffc0                blc_ll_setAdvParam.constprop.0.isra.0
 .text.updateColorMode.constprop.0.isra.0
                0x0000000020190158       0x50 /cygdrive/c/Users/huangli/AppData/Local/Temp/concurrent_sampleLight_b92.elf.60zuQo.ltrans7.ltrans.o
                0x0000000020190158                updateColorMode.constprop.0.isra.0
 .text.blt_smp_deleteBondingInfo_by_Index.constprop.0.isra.0
                0x00000000201901a8       0x8a /cygdrive/c/Users/huangli/AppData/Local/Temp/concurrent_sampleLight_b92.elf.60zuQo.ltrans7.ltrans.o
                0x00000000201901a8                blt_smp_deleteBondingInfo_by_Index.constprop.0.isra.0
 *fill*         0x0000000020190232        0x2 
 .text.blt_smp_setInitiatorKey.constprop.0.isra.0
                0x0000000020190234       0x12 /cygdrive/c/Users/huangli/AppData/Local/Temp/concurrent_sampleLight_b92.elf.60zuQo.ltrans7.ltrans.o
                0x0000000020190234                blt_smp_setInitiatorKey.constprop.0.isra.0
 *fill*         0x0000000020190246        0x2 
 .text.blt_smp_setResponderKey.constprop.0.isra.0
                0x0000000020190248       0x12 /cygdrive/c/Users/huangli/AppData/Local/Temp/concurrent_sampleLight_b92.elf.60zuQo.ltrans7.ltrans.o
                0x0000000020190248                blt_smp_setResponderKey.constprop.0.isra.0
 *fill*         0x000000002019025a        0x2 
 .text.nwkRoutingTabGetNextHop.isra.0
                0x000000002019025c       0x44 /cygdrive/c/Users/huangli/AppData/Local/Temp/concurrent_sampleLight_b92.elf.60zuQo.ltrans7.ltrans.o
                0x000000002019025c                nwkRoutingTabGetNextHop.isra.0
 .text.nwk_nodeAddrInfoDelete.isra.0
                0x00000000201902a0      0x156 /cygdrive/c/Users/huangli/AppData/Local/Temp/concurrent_sampleLight_b92.elf.60zuQo.ltrans7.ltrans.o
                0x00000000201902a0                nwk_nodeAddrInfoDelete.isra.0
 *fill*         0x00000000201903f6        0x2 
 .text.tl_zbMacMlmeBeaconRequestCmdSend.isra.0
                0x00000000201903f8       0x80 /cygdrive/c/Users/huangli/AppData/Local/Temp/concurrent_sampleLight_b92.elf.60zuQo.ltrans7.ltrans.o
                0x00000000201903f8                tl_zbMacMlmeBeaconRequestCmdSend.isra.0
 .text.aes_decrypt.isra.0
                0x0000000020190478       0x4a /cygdrive/c/Users/huangli/AppData/Local/Temp/concurrent_sampleLight_b92.elf.60zuQo.ltrans7.ltrans.o
                0x0000000020190478                aes_decrypt.isra.0
 *fill*         0x00000000201904c2        0x2 
 .text.aes_encrypt.isra.0
                0x00000000201904c4       0x4a /cygdrive/c/Users/huangli/AppData/Local/Temp/concurrent_sampleLight_b92.elf.60zuQo.ltrans7.ltrans.o
                0x00000000201904c4                aes_encrypt.isra.0
 *fill*         0x000000002019050e        0x2 
 .text.tl_cryHashFunction.isra.0
                0x0000000020190510      0x12e /cygdrive/c/Users/huangli/AppData/Local/Temp/concurrent_sampleLight_b92.elf.60zuQo.ltrans7.ltrans.o
                0x0000000020190510                tl_cryHashFunction.isra.0
 *fill*         0x000000002019063e        0x2 
 .text.onoff_attribute_change_handle.part.0.isra.0
                0x0000000020190640       0xfe /cygdrive/c/Users/huangli/AppData/Local/Temp/concurrent_sampleLight_b92.elf.60zuQo.ltrans7.ltrans.o
                0x0000000020190640                onoff_attribute_change_handle.part.0.isra.0
 *fill*         0x000000002019073e        0x2 
 .text.smp_erase_flash_area.isra.0
                0x0000000020190740       0xe4 /cygdrive/c/Users/huangli/AppData/Local/Temp/concurrent_sampleLight_b92.elf.60zuQo.ltrans7.ltrans.o
                0x0000000020190740                smp_erase_flash_area.isra.0
 .text.blt_UpdateParameter_request.isra.0
                0x0000000020190824       0x7c /cygdrive/c/Users/huangli/AppData/Local/Temp/concurrent_sampleLight_b92.elf.60zuQo.ltrans7.ltrans.o
                0x0000000020190824                blt_UpdateParameter_request.isra.0
 .text.__free_block.isra.0
                0x00000000201908a0       0x74 /cygdrive/c/Users/huangli/AppData/Local/Temp/concurrent_sampleLight_b92.elf.60zuQo.ltrans7.ltrans.o
                0x00000000201908a0                __free_block.isra.0
 .text.blc_gap_send_event.isra.0
                0x0000000020190914       0x3e /cygdrive/c/Users/huangli/AppData/Local/Temp/concurrent_sampleLight_b92.elf.60zuQo.ltrans7.ltrans.o
                0x0000000020190914                blc_gap_send_event.isra.0
 *fill*         0x0000000020190952        0x2 
 .text.hci_le_enhancedConnectionComplete_evt.isra.0
                0x0000000020190954       0xb4 /cygdrive/c/Users/huangli/AppData/Local/Temp/concurrent_sampleLight_b92.elf.60zuQo.ltrans7.ltrans.o
                0x0000000020190954                hci_le_enhancedConnectionComplete_evt.isra.0
 .text.blc_hci_send_event.isra.0
                0x0000000020190a08       0x3e /cygdrive/c/Users/huangli/AppData/Local/Temp/concurrent_sampleLight_b92.elf.60zuQo.ltrans7.ltrans.o
                0x0000000020190a08                blc_hci_send_event.isra.0
 *fill*         0x0000000020190a46        0x2 
 .text.blt_hci_rx_aclfifo_to_rf_txfifo.isra.0
                0x0000000020190a48      0x2c6 /cygdrive/c/Users/huangli/AppData/Local/Temp/concurrent_sampleLight_b92.elf.60zuQo.ltrans7.ltrans.o
 *fill*         0x0000000020190d0e        0x2 
 .text.blt_ll_procConnectionEvent.isra.0
                0x0000000020190d10      0x562 /cygdrive/c/Users/huangli/AppData/Local/Temp/concurrent_sampleLight_b92.elf.60zuQo.ltrans7.ltrans.o
 *fill*         0x0000000020191272        0x2 
 .text.hci_le_readRemoteFeaturesComplete_evt.isra.0
                0x0000000020191274       0x58 /cygdrive/c/Users/huangli/AppData/Local/Temp/concurrent_sampleLight_b92.elf.60zuQo.ltrans7.ltrans.o
                0x0000000020191274                hci_le_readRemoteFeaturesComplete_evt.isra.0
 .text.blt_ll_resolvRpaTimeoutLoop.isra.0
                0x00000000201912cc       0x9e /cygdrive/c/Users/huangli/AppData/Local/Temp/concurrent_sampleLight_b92.elf.60zuQo.ltrans7.ltrans.o
                0x00000000201912cc                blt_ll_resolvRpaTimeoutLoop.isra.0
 *fill*         0x000000002019136a        0x2 
 .text.blt_ll_enc_proc_disConnect.isra.0
                0x000000002019136c       0x48 /cygdrive/c/Users/huangli/AppData/Local/Temp/concurrent_sampleLight_b92.elf.60zuQo.ltrans7.ltrans.o
                0x000000002019136c                blt_ll_enc_proc_disConnect.isra.0
 .text.blt_hci_ltkRequestNegativeReply.isra.0
                0x00000000201913b4       0x4a /cygdrive/c/Users/huangli/AppData/Local/Temp/concurrent_sampleLight_b92.elf.60zuQo.ltrans7.ltrans.o
                0x00000000201913b4                blt_hci_ltkRequestNegativeReply.isra.0
 *fill*         0x00000000201913fe        0x2 
 .text.blt_hci_ltkRequestReply.isra.0
                0x0000000020191400       0x76 /cygdrive/c/Users/huangli/AppData/Local/Temp/concurrent_sampleLight_b92.elf.60zuQo.ltrans7.ltrans.o
                0x0000000020191400                blt_hci_ltkRequestReply.isra.0
 *fill*         0x0000000020191476        0x2 
 .text.blt_ll_exchangeDataLength.isra.0
                0x0000000020191478       0xca /cygdrive/c/Users/huangli/AppData/Local/Temp/concurrent_sampleLight_b92.elf.60zuQo.ltrans7.ltrans.o
                0x0000000020191478                blt_ll_exchangeDataLength.isra.0
 *fill*         0x0000000020191542        0x2 
 .text.blt_ll_startEncryption.isra.0
                0x0000000020191544       0x98 /cygdrive/c/Users/huangli/AppData/Local/Temp/concurrent_sampleLight_b92.elf.60zuQo.ltrans7.ltrans.o
                0x0000000020191544                blt_ll_startEncryption.isra.0
 .text.blt_ll_smpPushEncPkt.isra.0
                0x00000000201915dc      0x112 /cygdrive/c/Users/huangli/AppData/Local/Temp/concurrent_sampleLight_b92.elf.60zuQo.ltrans7.ltrans.o
                0x00000000201915dc                blt_ll_smpPushEncPkt.isra.0
 *fill*         0x00000000201916ee        0x2 
 .text.blc_ll_disconnect.isra.0
                0x00000000201916f0       0xa0 /cygdrive/c/Users/huangli/AppData/Local/Temp/concurrent_sampleLight_b92.elf.60zuQo.ltrans7.ltrans.o
                0x00000000201916f0                blc_ll_disconnect.isra.0
 .text.blt_ll_mainloop_startScheduler.isra.0
                0x0000000020191790       0x46 /cygdrive/c/Users/huangli/AppData/Local/Temp/concurrent_sampleLight_b92.elf.60zuQo.ltrans7.ltrans.o
                0x0000000020191790                blt_ll_mainloop_startScheduler.isra.0
 *fill*         0x00000000201917d6        0x2 
 .text.blc_ll_setRandomAddr.isra.0
                0x00000000201917d8       0x44 /cygdrive/c/Users/huangli/AppData/Local/Temp/concurrent_sampleLight_b92.elf.60zuQo.ltrans7.ltrans.o
                0x00000000201917d8                blc_ll_setRandomAddr.isra.0
 .text.factoryRst_powerCntSave.isra.0
                0x000000002019181c       0x3e /cygdrive/c/Users/huangli/AppData/Local/Temp/concurrent_sampleLight_b92.elf.60zuQo.ltrans7.ltrans.o
                0x000000002019181c                factoryRst_powerCntSave.isra.0
 *fill*         0x000000002019185a        0x2 
 .text.sampleLight_moveToLevelProcess.isra.0
                0x000000002019185c      0x194 /cygdrive/c/Users/huangli/AppData/Local/Temp/concurrent_sampleLight_b92.elf.60zuQo.ltrans7.ltrans.o
                0x000000002019185c                sampleLight_moveToLevelProcess.isra.0
 .text.sampleLight_moveProcess.isra.0
                0x00000000201919f0      0x252 /cygdrive/c/Users/huangli/AppData/Local/Temp/concurrent_sampleLight_b92.elf.60zuQo.ltrans7.ltrans.o
                0x00000000201919f0                sampleLight_moveProcess.isra.0
 *fill*         0x0000000020191c42        0x2 
 .text.sampleLight_moveToColorTemperatureProcess.isra.0
                0x0000000020191c44       0xd8 /cygdrive/c/Users/huangli/AppData/Local/Temp/concurrent_sampleLight_b92.elf.60zuQo.ltrans7.ltrans.o
                0x0000000020191c44                sampleLight_moveToColorTemperatureProcess.isra.0
 .text.zcl_colorCtrlAttr_save.isra.0
                0x0000000020191d1c       0xe8 /cygdrive/c/Users/huangli/AppData/Local/Temp/concurrent_sampleLight_b92.elf.60zuQo.ltrans7.ltrans.o
                0x0000000020191d1c                zcl_colorCtrlAttr_save.isra.0
 .text.zcl_levelAttr_save.isra.0
                0x0000000020191e04       0x9c /cygdrive/c/Users/huangli/AppData/Local/Temp/concurrent_sampleLight_b92.elf.60zuQo.ltrans7.ltrans.o
                0x0000000020191e04                zcl_levelAttr_save.isra.0
 .text.zcl_onOffAttr_save.isra.0
                0x0000000020191ea0       0xa8 /cygdrive/c/Users/huangli/AppData/Local/Temp/concurrent_sampleLight_b92.elf.60zuQo.ltrans7.ltrans.o
                0x0000000020191ea0                zcl_onOffAttr_save.isra.0
 .text.blt_sdk_main_loop.isra.0
                0x0000000020191f48        0x6 /cygdrive/c/Users/huangli/AppData/Local/Temp/concurrent_sampleLight_b92.elf.60zuQo.ltrans7.ltrans.o
                0x0000000020191f48                blt_sdk_main_loop.isra.0
 *fill*         0x0000000020191f4e        0x2 
 .text.memcpy.isra.0
                0x0000000020191f50       0xce /cygdrive/c/Users/huangli/AppData/Local/Temp/concurrent_sampleLight_b92.elf.60zuQo.ltrans7.ltrans.o
                0x0000000020191f50                memcpy.isra.0
 *fill*         0x000000002019201e        0x2 
 .text.aes_ccmBaseTran.constprop.1.isra.0
                0x0000000020192020      0x100 /cygdrive/c/Users/huangli/AppData/Local/Temp/concurrent_sampleLight_b92.elf.60zuQo.ltrans7.ltrans.o
                0x0000000020192020                aes_ccmBaseTran.constprop.1.isra.0
 .text.tl_zbMacMlmeBeaconCmdSend.constprop.0.isra.0
                0x0000000020192120      0x13c /cygdrive/c/Users/huangli/AppData/Local/Temp/concurrent_sampleLight_b92.elf.60zuQo.ltrans7.ltrans.o
                0x0000000020192120                tl_zbMacMlmeBeaconCmdSend.constprop.0.isra.0
 .text.nwk_parentNodeInfoStore.isra.0
                0x000000002019225c      0x15e /cygdrive/c/Users/huangli/AppData/Local/Temp/concurrent_sampleLight_b92.elf.60zuQo.ltrans7.ltrans.o
                0x000000002019225c                nwk_parentNodeInfoStore.isra.0
 *fill*         0x00000000201923ba        0x2 
 .text.tl_zbMacMlmeDataRequestCmdSend.isra.0
                0x00000000201923bc       0xd2 /cygdrive/c/Users/huangli/AppData/Local/Temp/concurrent_sampleLight_b92.elf.60zuQo.ltrans7.ltrans.o
                0x00000000201923bc                tl_zbMacMlmeDataRequestCmdSend.isra.0
 *fill*         0x000000002019248e        0x2 
 .text.nv_resetToFactoryNew.isra.0
                0x0000000020192490       0xea /cygdrive/c/Users/huangli/AppData/Local/Temp/concurrent_sampleLight_b92.elf.60zuQo.ltrans7.ltrans.o
                0x0000000020192490                nv_resetToFactoryNew.isra.0
 *fill*         0x000000002019257a        0x2 
 .text.nv_flashSingleItemRemove.isra.0
                0x000000002019257c       0xa2 /cygdrive/c/Users/huangli/AppData/Local/Temp/concurrent_sampleLight_b92.elf.60zuQo.ltrans7.ltrans.o
                0x000000002019257c                nv_flashSingleItemRemove.isra.0
 *fill*         0x000000002019261e        0x2 
 .text.ev_timer_process.constprop.0.isra.0
                0x0000000020192620       0xce /cygdrive/c/Users/huangli/AppData/Local/Temp/concurrent_sampleLight_b92.elf.60zuQo.ltrans7.ltrans.o
                0x0000000020192620                ev_timer_process.constprop.0.isra.0
 *fill*         0x00000000201926ee        0x2 
 .text.ble_task_stop.isra.0
                0x00000000201926f0       0x4c /cygdrive/c/Users/huangli/AppData/Local/Temp/concurrent_sampleLight_b92.elf.60zuQo.ltrans7.ltrans.o
                0x00000000201926f0                ble_task_stop.isra.0
 .text.ev_buf_free.isra.0
                0x000000002019273c       0xd6 /cygdrive/c/Users/huangli/AppData/Local/Temp/concurrent_sampleLight_b92.elf.60zuQo.ltrans7.ltrans.o
                0x000000002019273c                ev_buf_free.isra.0
 *fill*         0x0000000020192812        0x2 
 .text.nv_exceptionDataHandler.constprop.0.isra.0
                0x0000000020192814      0x17c /cygdrive/c/Users/huangli/AppData/Local/Temp/concurrent_sampleLight_b92.elf.60zuQo.ltrans7.ltrans.o
                0x0000000020192814                nv_exceptionDataHandler.constprop.0.isra.0
 .text.zcl_read.constprop.0.isra.0
                0x0000000020192990       0xa6 /cygdrive/c/Users/huangli/AppData/Local/Temp/concurrent_sampleLight_b92.elf.60zuQo.ltrans7.ltrans.o
                0x0000000020192990                zcl_read.constprop.0.isra.0
 *fill*         0x0000000020192a36        0x2 
 .text.af_endpointRegister.isra.0
                0x0000000020192a38       0x5a /cygdrive/c/Users/huangli/AppData/Local/Temp/concurrent_sampleLight_b92.elf.60zuQo.ltrans7.ltrans.o
                0x0000000020192a38                af_endpointRegister.isra.0
 *fill*         0x0000000020192a92        0x2 
 .text.bdb_topLevelCommissiongConfirm.isra.0
                0x0000000020192a94       0xa4 /cygdrive/c/Users/huangli/AppData/Local/Temp/concurrent_sampleLight_b92.elf.60zuQo.ltrans7.ltrans.o
                0x0000000020192a94                bdb_topLevelCommissiongConfirm.isra.0
 .text.zcl_zllTouchLinkStartNetworkStartOrJoinTimerStop.isra.0
                0x0000000020192b38       0x38 /cygdrive/c/Users/huangli/AppData/Local/Temp/concurrent_sampleLight_b92.elf.60zuQo.ltrans7.ltrans.o
                0x0000000020192b38                zcl_zllTouchLinkStartNetworkStartOrJoinTimerStop.isra.0
 .text.blc_ll_setAdvData.isra.0
                0x0000000020192b70       0x8a /cygdrive/c/Users/huangli/AppData/Local/Temp/concurrent_sampleLight_b92.elf.60zuQo.ltrans7.ltrans.o
                0x0000000020192b70                blc_ll_setAdvData.isra.0
 *fill*         0x0000000020192bfa        0x2 
 .text.blt_llms_main_loop_data.isra.0
                0x0000000020192bfc      0xd10 /cygdrive/c/Users/huangli/AppData/Local/Temp/concurrent_sampleLight_b92.elf.60zuQo.ltrans7.ltrans.o
                0x0000000020192bfc                blt_llms_main_loop_data.isra.0
 .text.blt_ll_acl_conn_mainloop.isra.0
                0x000000002019390c      0x384 /cygdrive/c/Users/huangli/AppData/Local/Temp/concurrent_sampleLight_b92.elf.60zuQo.ltrans7.ltrans.o
                0x000000002019390c                blt_ll_acl_conn_mainloop.isra.0
 .text.tl_zbPrimitivePost.isra.0
                0x0000000020193c90       0xa0 /cygdrive/c/Users/huangli/AppData/Local/Temp/concurrent_sampleLight_b92.elf.60zuQo.ltrans7.ltrans.o
                0x0000000020193c90                tl_zbPrimitivePost.isra.0
 .text.zb_mgmtPermitJoinReq.constprop.0.isra.0
                0x0000000020193d30       0xa0 /cygdrive/c/Users/huangli/AppData/Local/Temp/concurrent_sampleLight_b92.elf.60zuQo.ltrans7.ltrans.o
                0x0000000020193d30                zb_mgmtPermitJoinReq.constprop.0.isra.0
 .text.zdo_nwkRouterStart.part.0.isra.0
                0x0000000020193dd0       0x54 /cygdrive/c/Users/huangli/AppData/Local/Temp/concurrent_sampleLight_b92.elf.60zuQo.ltrans7.ltrans.o
                0x0000000020193dd0                zdo_nwkRouterStart.part.0.isra.0
 .text.tl_zbMacCommStatusSend.isra.0
                0x0000000020193e24       0x5e /cygdrive/c/Users/huangli/AppData/Local/Temp/concurrent_sampleLight_b92.elf.60zuQo.ltrans7.ltrans.o
                0x0000000020193e24                tl_zbMacCommStatusSend.isra.0
 *fill*         0x0000000020193e82        0x2 
 .text.nwkDiscDataPendClear.isra.0
                0x0000000020193e84      0x122 /cygdrive/c/Users/huangli/AppData/Local/Temp/concurrent_sampleLight_b92.elf.60zuQo.ltrans7.ltrans.o
                0x0000000020193e84                nwkDiscDataPendClear.isra.0
 *fill*         0x0000000020193fa6        0x2 
 .text          0x0000000020193fa8        0x6 ./platform/boot/b92/cstartup_b92.o
                0x0000000020193fa8                entry_irq7
                0x0000000020193fa8                entry_irq11
                0x0000000020193fa8                entry_irq13
                0x0000000020193fa8                entry_irq12
                0x0000000020193fa8                entry_irq10
                0x0000000020193fa8                entry_irq14
                0x0000000020193fa8                entry_irq29
                0x0000000020193fa8                entry_irq16
                0x0000000020193fa8                entry_irq17
                0x0000000020193fa8                entry_irq18
                0x0000000020193fa8                entry_irq41
                0x0000000020193fa8                entry_irq47
                0x0000000020193fa8                entry_irq45
                0x0000000020193fa8                entry_irq46
                0x0000000020193fa8                entry_irq40
                0x0000000020193fa8                entry_irq37
                0x0000000020193fa8                entry_irq33
                0x0000000020193fa8                entry_irq35
                0x0000000020193fa8                entry_irq42
                0x0000000020193fa8                entry_irq34
                0x0000000020193fa8                entry_irq43
                0x0000000020193fa8                entry_irq32
                0x0000000020193fa8                entry_irq44
                0x0000000020193fa8                entry_irq36
                0x0000000020193fa8                entry_irq30
                0x0000000020193fa8                entry_irq31
                0x0000000020193fa8                entry_irq9
                0x0000000020193fa8                entry_irq8
                0x0000000020193fa8                entry_irq28
                0x0000000020193fa8                entry_irq38
                0x0000000020193fa8                entry_irq39
                0x0000000020193fa8                entry_irq24
                0x0000000020193fa8                entry_irq20
                0x0000000020193fa8                entry_irq23
                0x0000000020193fa8                entry_irq21
                0x0000000020193fa8                entry_irq5
                0x0000000020193fa8                entry_irq22
                0x0000000020193fa8                default_irq_entry
                0x0000000020193fa8                entry_irq2
                0x0000000020193fa8                entry_irq6
                0x0000000020193faa                trap_handler
 *fill*         0x0000000020193fae        0x2 
 .text.exp      0x0000000020193fb0      0x362 C:\TelinkIoTStudio\RDS\V5.1.2\toolchains\nds32le-elf-mculib-v5f\riscv32-elf\lib/libm.a(lib_a-exp.o)
                0x0000000020193fb0                exp
 *fill*         0x0000000020194312        0x2 
 .text.log      0x0000000020194314      0x428 C:\TelinkIoTStudio\RDS\V5.1.2\toolchains\nds32le-elf-mculib-v5f\riscv32-elf\lib/libm.a(lib_a-log.o)
                0x0000000020194314                log
 .text.with_errno
                0x000000002019473c        0x6 C:\TelinkIoTStudio\RDS\V5.1.2\toolchains\nds32le-elf-mculib-v5f\riscv32-elf\lib/libm.a(lib_a-math_err.o)
 .text.xflow    0x0000000020194742       0x38 C:\TelinkIoTStudio\RDS\V5.1.2\toolchains\nds32le-elf-mculib-v5f\riscv32-elf\lib/libm.a(lib_a-math_err.o)
 .text.__math_uflow
                0x000000002019477a       0x10 C:\TelinkIoTStudio\RDS\V5.1.2\toolchains\nds32le-elf-mculib-v5f\riscv32-elf\lib/libm.a(lib_a-math_err.o)
                0x000000002019477a                __math_uflow
 .text.__math_oflow
                0x000000002019478a       0x10 C:\TelinkIoTStudio\RDS\V5.1.2\toolchains\nds32le-elf-mculib-v5f\riscv32-elf\lib/libm.a(lib_a-math_err.o)
                0x000000002019478a                __math_oflow
 .text.__math_divzero
                0x000000002019479a       0x3e C:\TelinkIoTStudio\RDS\V5.1.2\toolchains\nds32le-elf-mculib-v5f\riscv32-elf\lib/libm.a(lib_a-math_err.o)
                0x000000002019479a                __math_divzero
 .text.__math_invalid
                0x00000000201947d8       0x3e C:\TelinkIoTStudio\RDS\V5.1.2\toolchains\nds32le-elf-mculib-v5f\riscv32-elf\lib/libm.a(lib_a-math_err.o)
                0x00000000201947d8                __math_invalid
 .text.__math_check_uflow
                0x0000000020194816       0x2a C:\TelinkIoTStudio\RDS\V5.1.2\toolchains\nds32le-elf-mculib-v5f\riscv32-elf\lib/libm.a(lib_a-math_err.o)
                0x0000000020194816                __math_check_uflow
 .text.__math_check_oflow
                0x0000000020194840       0x4e C:\TelinkIoTStudio\RDS\V5.1.2\toolchains\nds32le-elf-mculib-v5f\riscv32-elf\lib/libm.a(lib_a-math_err.o)
                0x0000000020194840                __math_check_oflow
 *fill*         0x000000002019488e        0x2 
 .text.fabs     0x0000000020194890        0x6 C:\TelinkIoTStudio\RDS\V5.1.2\toolchains\nds32le-elf-mculib-v5f\riscv32-elf\lib/libm.a(lib_a-s_fabs.o)
                0x0000000020194890                fabs
 .text.ceilf    0x0000000020194896       0x96 C:\TelinkIoTStudio\RDS\V5.1.2\toolchains\nds32le-elf-mculib-v5f\riscv32-elf\lib/libm.a(lib_a-sf_ceil.o)
                0x0000000020194896                ceilf
 *fill*         0x000000002019492c        0x0 
 .text          0x000000002019492c      0x238 /cygdrive/c/TelinkIoTStudio/RDS/V5.1.2/toolchains/nds32le-elf-mculib-v5f/bin/../lib/gcc/riscv32-elf/10.3.0/mext-dsp/libgcc.a(_addsub_df.o)
                0x000000002019492c                __subdf3
                0x0000000020194932                __adddf3
 *fill*         0x0000000020194b64        0x0 
 .text          0x0000000020194b64      0x29c /cygdrive/c/TelinkIoTStudio/RDS/V5.1.2/toolchains/nds32le-elf-mculib-v5f/bin/../lib/gcc/riscv32-elf/10.3.0/mext-dsp/libgcc.a(_mul_df.o)
                0x0000000020194b64                __muldf3
 *fill*         0x0000000020194e00        0x0 
 .text          0x0000000020194e00      0x402 /cygdrive/c/TelinkIoTStudio/RDS/V5.1.2/toolchains/nds32le-elf-mculib-v5f/bin/../lib/gcc/riscv32-elf/10.3.0/mext-dsp/libgcc.a(_div_df.o)
                0x0000000020194e00                __divdf3
 *fill*         0x0000000020195202        0x2 
 .text          0x0000000020195204       0x78 /cygdrive/c/TelinkIoTStudio/RDS/V5.1.2/toolchains/nds32le-elf-mculib-v5f/bin/../lib/gcc/riscv32-elf/10.3.0/mext-dsp/libgcc.a(_si_to_df.o)
                0x0000000020195204                __floatsidf
 *fill*         0x000000002019527c        0x0 
 .text          0x000000002019527c       0x92 /cygdrive/c/TelinkIoTStudio/RDS/V5.1.2/toolchains/nds32le-elf-mculib-v5f/bin/../lib/gcc/riscv32-elf/10.3.0/mext-dsp/libgcc.a(_compare_df.o)
                0x000000002019527c                __gtdf2
                0x000000002019527c                __gedf2
                0x0000000020195280                __ledf2
                0x0000000020195280                __nedf2
                0x0000000020195280                __eqdf2
                0x0000000020195280                __cmpdf2
                0x0000000020195280                __ltdf2
 *fill*         0x000000002019530e        0x2 
 .text          0x0000000020195310       0x26 /cygdrive/c/TelinkIoTStudio/RDS/V5.1.2/toolchains/nds32le-elf-mculib-v5f/bin/../lib/gcc/riscv32-elf/10.3.0/mext-dsp/libgcc.a(_unord_df.o)
                0x0000000020195310                __unorddf2
 *fill*         0x0000000020195336        0x2 
 .text          0x0000000020195338       0x7a /cygdrive/c/TelinkIoTStudio/RDS/V5.1.2/toolchains/nds32le-elf-mculib-v5f/bin/../lib/gcc/riscv32-elf/10.3.0/mext-dsp/libgcc.a(_clzsi2.o)
                0x0000000020195338                __clzsi2
 .text          0x00000000201953b2       0x60 /cygdrive/c/TelinkIoTStudio/RDS/V5.1.2/toolchains/nds32le-elf-mculib-v5f/bin/../lib/gcc/riscv32-elf/10.3.0/mext-dsp/libgcc.a(save-restore.o)
                0x00000000201953b2                __riscv_save_12
                0x00000000201953ba                __riscv_save_11
                0x00000000201953ba                __riscv_save_8
                0x00000000201953ba                __riscv_save_9
                0x00000000201953ba                __riscv_save_10
                0x00000000201953c8                __riscv_save_7
                0x00000000201953c8                __riscv_save_6
                0x00000000201953c8                __riscv_save_4
                0x00000000201953c8                __riscv_save_5
                0x00000000201953e2                __riscv_save_2
                0x00000000201953e2                __riscv_save_0
                0x00000000201953e2                __riscv_save_1
                0x00000000201953e2                __riscv_save_3
                0x00000000201953ee                __riscv_restore_12
                0x00000000201953f2                __riscv_restore_10
                0x00000000201953f2                __riscv_restore_8
                0x00000000201953f2                __riscv_restore_9
                0x00000000201953f2                __riscv_restore_11
                0x00000000201953fc                __riscv_restore_4
                0x00000000201953fc                __riscv_restore_6
                0x00000000201953fc                __riscv_restore_5
                0x00000000201953fc                __riscv_restore_7
                0x0000000020195406                __riscv_restore_2
                0x0000000020195406                __riscv_restore_3
                0x0000000020195406                __riscv_restore_0
                0x0000000020195406                __riscv_restore_1
 *fill*         0x0000000020195412        0x2 
 .text          0x0000000020195414       0x5e /cygdrive/c/TelinkIoTStudio/RDS/V5.1.2/toolchains/nds32le-elf-mculib-v5f/bin/../lib/gcc/riscv32-elf/10.3.0/mext-dsp/libgcc.a(_sf_to_df.o)
                0x0000000020195414                __extendsfdf2
 *fill*         0x0000000020195472        0x2 
 .text          0x0000000020195474       0xde /cygdrive/c/TelinkIoTStudio/RDS/V5.1.2/toolchains/nds32le-elf-mculib-v5f/bin/../lib/gcc/riscv32-elf/10.3.0/mext-dsp/libgcc.a(_df_to_sf.o)
                0x0000000020195474                __truncdfsf2
 *fill*         0x0000000020195552        0x2 
 .text          0x0000000020195554       0x66 /cygdrive/c/TelinkIoTStudio/RDS/V5.1.2/toolchains/nds32le-elf-mculib-v5f/bin/../lib/gcc/riscv32-elf/10.3.0/mext-dsp/libgcc.a(_fixunsdfsi.o)
                0x0000000020195554                __fixunsdfsi
 .text.printf   0x00000000201955ba       0x1e C:\TelinkIoTStudio\RDS\V5.1.2\toolchains\nds32le-elf-mculib-v5f\riscv32-elf\lib/libc.a(lib_a-printf.o)
                0x00000000201955ba                printf
                0x00000000201955ba                iprintf
 .text.__vprintf_help
                0x00000000201955d8       0x3a C:\TelinkIoTStudio\RDS\V5.1.2\toolchains\nds32le-elf-mculib-v5f\riscv32-elf\lib/libc.a(lib_a-vprintf.o)
 .text.vprintf  0x0000000020195612       0x48 C:\TelinkIoTStudio\RDS\V5.1.2\toolchains\nds32le-elf-mculib-v5f\riscv32-elf\lib/libc.a(lib_a-vprintf.o)
                0x0000000020195612                viprintf
                0x0000000020195612                vprintf
 .text.__print_integral
                0x000000002019565a       0x4c C:\TelinkIoTStudio\RDS\V5.1.2\toolchains\nds32le-elf-mculib-v5f\riscv32-elf\lib/libc.a(lib_a-printf_impl.o)
                0x000000002019565a                __print_integral
 .text.__printf_impl
                0x00000000201956a6      0x466 C:\TelinkIoTStudio\RDS\V5.1.2\toolchains\nds32le-elf-mculib-v5f\riscv32-elf\lib/libc.a(lib_a-printf_impl.o)
                0x00000000201956a6                __printf_impl
                0x00000000201956a6                __printf_impl_lite
 .text.__int_to_poly
                0x0000000020195b0c       0x22 C:\TelinkIoTStudio\RDS\V5.1.2\toolchains\nds32le-elf-mculib-v5f\riscv32-elf\lib/libc.a(lib_a-printf_impl_float.o)
                0x0000000020195b0c                __int_to_poly
 .text.__print_integral_poly
                0x0000000020195b2e       0x88 C:\TelinkIoTStudio\RDS\V5.1.2\toolchains\nds32le-elf-mculib-v5f\riscv32-elf\lib/libc.a(lib_a-printf_impl_float.o)
                0x0000000020195b2e                __print_integral_poly
 .text.__printf_float_impl
                0x0000000020195bb6      0x436 C:\TelinkIoTStudio\RDS\V5.1.2\toolchains\nds32le-elf-mculib-v5f\riscv32-elf\lib/libc.a(lib_a-printf_impl_float.o)
                0x0000000020195bb6                __printf_float_impl
 .text.strnlen  0x0000000020195fec       0x18 C:\TelinkIoTStudio\RDS\V5.1.2\toolchains\nds32le-elf-mculib-v5f\riscv32-elf\lib/libc.a(lib_a-strnlen.o)
                0x0000000020195fec                strnlen
 *(.text.*personality*)
 *(.gnu.warning)

.rodata         0x0000000020196008     0x3858
 *(.rodata .rodata.* .gnu.linkonce.r.*)
 .rodata.ll_decrypt_network_key.str1.4
                0x0000000020196008        0xd /cygdrive/c/Users/huangli/AppData/Local/Temp/concurrent_sampleLight_b92.elf.60zuQo.ltrans0.ltrans.o
 *fill*         0x0000000020196015        0x3 
 .rodata.CSWTCH.167
                0x0000000020196018       0xea /cygdrive/c/Users/huangli/AppData/Local/Temp/concurrent_sampleLight_b92.elf.60zuQo.ltrans0.ltrans.o
 *fill*         0x0000000020196102        0x2 
 .rodata.g_zdpClientFunc
                0x0000000020196104       0x90 /cygdrive/c/Users/huangli/AppData/Local/Temp/concurrent_sampleLight_b92.elf.60zuQo.ltrans0.ltrans.o
 .rodata.ldsDeviceInit.str1.4
                0x0000000020196194       0x1d /cygdrive/c/Users/huangli/AppData/Local/Temp/concurrent_sampleLight_b92.elf.60zuQo.ltrans1.ltrans.o
 *fill*         0x00000000201961b1        0x3 
 .rodata.ldsDeviceInit.cst4
                0x00000000201961b4        0x8 /cygdrive/c/Users/huangli/AppData/Local/Temp/concurrent_sampleLight_b92.elf.60zuQo.ltrans1.ltrans.o
 *fill*         0x00000000201961bc        0x4 
 .rodata.ldsDeviceInit.cst8
                0x00000000201961c0        0x8 /cygdrive/c/Users/huangli/AppData/Local/Temp/concurrent_sampleLight_b92.elf.60zuQo.ltrans1.ltrans.o
 .rodata.light_adjust.str1.4
                0x00000000201961c8       0x1d /cygdrive/c/Users/huangli/AppData/Local/Temp/concurrent_sampleLight_b92.elf.60zuQo.ltrans1.ltrans.o
 *fill*         0x00000000201961e5        0x3 
 .rodata.drv_calibration.str1.4
                0x00000000201961e8       0x11 /cygdrive/c/Users/huangli/AppData/Local/Temp/concurrent_sampleLight_b92.elf.60zuQo.ltrans1.ltrans.o
 *fill*         0x00000000201961f9        0x3 
 .rodata.matter_prepare2Jump.str1.4
                0x00000000201961fc       0x48 /cygdrive/c/Users/huangli/AppData/Local/Temp/concurrent_sampleLight_b92.elf.60zuQo.ltrans1.ltrans.o
 .rodata.app_controller_event_callback.str1.4
                0x0000000020196244       0x7b /cygdrive/c/Users/huangli/AppData/Local/Temp/concurrent_sampleLight_b92.elf.60zuQo.ltrans1.ltrans.o
 *fill*         0x00000000201962bf        0x1 
 .rodata.main.str1.4
                0x00000000201962c0      0x371 /cygdrive/c/Users/huangli/AppData/Local/Temp/concurrent_sampleLight_b92.elf.60zuQo.ltrans1.ltrans.o
                                        0x375 (size before relaxing)
 *fill*         0x0000000020196631        0x3 
 .rodata.gp_attrTbl
                0x0000000020196634       0x40 /cygdrive/c/Users/huangli/AppData/Local/Temp/concurrent_sampleLight_b92.elf.60zuQo.ltrans1.ltrans.o
 .rodata.gp_inClusterList
                0x0000000020196674        0x0 /cygdrive/c/Users/huangli/AppData/Local/Temp/concurrent_sampleLight_b92.elf.60zuQo.ltrans1.ltrans.o
 .rodata.lightColorCtrl_attrTbl
                0x0000000020196674       0x68 /cygdrive/c/Users/huangli/AppData/Local/Temp/concurrent_sampleLight_b92.elf.60zuQo.ltrans1.ltrans.o
 .rodata.level_attrTbl
                0x00000000201966dc       0x38 /cygdrive/c/Users/huangli/AppData/Local/Temp/concurrent_sampleLight_b92.elf.60zuQo.ltrans1.ltrans.o
 .rodata.onOff_attrTbl
                0x0000000020196714       0x30 /cygdrive/c/Users/huangli/AppData/Local/Temp/concurrent_sampleLight_b92.elf.60zuQo.ltrans1.ltrans.o
 .rodata.scene_attrTbl
                0x0000000020196744       0x30 /cygdrive/c/Users/huangli/AppData/Local/Temp/concurrent_sampleLight_b92.elf.60zuQo.ltrans1.ltrans.o
 .rodata.group_attrTbl
                0x0000000020196774       0x10 /cygdrive/c/Users/huangli/AppData/Local/Temp/concurrent_sampleLight_b92.elf.60zuQo.ltrans1.ltrans.o
 .rodata.identify_attrTbl
                0x0000000020196784       0x10 /cygdrive/c/Users/huangli/AppData/Local/Temp/concurrent_sampleLight_b92.elf.60zuQo.ltrans1.ltrans.o
 .rodata.zdoOutCluster
                0x0000000020196794       0x10 /cygdrive/c/Users/huangli/AppData/Local/Temp/concurrent_sampleLight_b92.elf.60zuQo.ltrans1.ltrans.o
 .rodata.zdoIncluster
                0x00000000201967a4        0xe /cygdrive/c/Users/huangli/AppData/Local/Temp/concurrent_sampleLight_b92.elf.60zuQo.ltrans1.ltrans.o
 *fill*         0x00000000201967b2        0x2 
 .rodata.sampleLight_outClusterList
                0x00000000201967b4        0x0 /cygdrive/c/Users/huangli/AppData/Local/Temp/concurrent_sampleLight_b92.elf.60zuQo.ltrans1.ltrans.o
 .rodata.sampleLight_inClusterList
                0x00000000201967b4       0x10 /cygdrive/c/Users/huangli/AppData/Local/Temp/concurrent_sampleLight_b92.elf.60zuQo.ltrans1.ltrans.o
 .rodata.my_OtaUUID
                0x00000000201967c4       0x10 /cygdrive/c/Users/huangli/AppData/Local/Temp/concurrent_sampleLight_b92.elf.60zuQo.ltrans1.ltrans.o
 .rodata.my_OtaCharVal
                0x00000000201967d4       0x13 /cygdrive/c/Users/huangli/AppData/Local/Temp/concurrent_sampleLight_b92.elf.60zuQo.ltrans1.ltrans.o
 *fill*         0x00000000201967e7        0x1 
 .rodata.my_OtaServiceUUID
                0x00000000201967e8       0x10 /cygdrive/c/Users/huangli/AppData/Local/Temp/concurrent_sampleLight_b92.elf.60zuQo.ltrans1.ltrans.o
 .rodata.TelinkSPPC2SDescriptor
                0x00000000201967f8       0x1a /cygdrive/c/Users/huangli/AppData/Local/Temp/concurrent_sampleLight_b92.elf.60zuQo.ltrans1.ltrans.o
 *fill*         0x0000000020196812        0x2 
 .rodata.TelinkSppDataClient2ServerUUID
                0x0000000020196814       0x10 /cygdrive/c/Users/huangli/AppData/Local/Temp/concurrent_sampleLight_b92.elf.60zuQo.ltrans1.ltrans.o
 .rodata.TelinkSppDataClient2ServerCharVal
                0x0000000020196824       0x13 /cygdrive/c/Users/huangli/AppData/Local/Temp/concurrent_sampleLight_b92.elf.60zuQo.ltrans1.ltrans.o
 *fill*         0x0000000020196837        0x1 
 .rodata.TelinkSPPS2CDescriptor
                0x0000000020196838       0x1a /cygdrive/c/Users/huangli/AppData/Local/Temp/concurrent_sampleLight_b92.elf.60zuQo.ltrans1.ltrans.o
 *fill*         0x0000000020196852        0x2 
 .rodata.TelinkSppDataServer2ClientUUID
                0x0000000020196854       0x10 /cygdrive/c/Users/huangli/AppData/Local/Temp/concurrent_sampleLight_b92.elf.60zuQo.ltrans1.ltrans.o
 .rodata.TelinkSppDataServer2ClientCharVal
                0x0000000020196864       0x13 /cygdrive/c/Users/huangli/AppData/Local/Temp/concurrent_sampleLight_b92.elf.60zuQo.ltrans1.ltrans.o
 *fill*         0x0000000020196877        0x1 
 .rodata.TelinkSppServiceUUID
                0x0000000020196878       0x10 /cygdrive/c/Users/huangli/AppData/Local/Temp/concurrent_sampleLight_b92.elf.60zuQo.ltrans1.ltrans.o
 .rodata.my_devName
                0x0000000020196888        0xa /cygdrive/c/Users/huangli/AppData/Local/Temp/concurrent_sampleLight_b92.elf.60zuQo.ltrans1.ltrans.o
 *fill*         0x0000000020196892        0x2 
 .rodata        0x0000000020196894       0x20 /cygdrive/c/Users/huangli/AppData/Local/Temp/concurrent_sampleLight_b92.elf.60zuQo.ltrans1.ltrans.o
 .rodata.CSWTCH.12
                0x00000000201968b4        0xa /cygdrive/c/Users/huangli/AppData/Local/Temp/concurrent_sampleLight_b92.elf.60zuQo.ltrans1.ltrans.o
 *fill*         0x00000000201968be        0x2 
 .rodata.appCbLst
                0x00000000201968c0       0x28 /cygdrive/c/Users/huangli/AppData/Local/Temp/concurrent_sampleLight_b92.elf.60zuQo.ltrans1.ltrans.o
 .rodata.crc32_table.lto_priv.0
                0x00000000201968e8      0x400 /cygdrive/c/Users/huangli/AppData/Local/Temp/concurrent_sampleLight_b92.elf.60zuQo.ltrans1.ltrans.o
                0x00000000201968e8                crc32_table.lto_priv.0
 .rodata.flash_support_mid
                0x0000000020196ce8       0x1c /cygdrive/c/Users/huangli/AppData/Local/Temp/concurrent_sampleLight_b92.elf.60zuQo.ltrans1.ltrans.o
 .rodata.g_bdbAttrsDft
                0x0000000020196d04       0x30 /cygdrive/c/Users/huangli/AppData/Local/Temp/concurrent_sampleLight_b92.elf.60zuQo.ltrans1.ltrans.o
                0x0000000020196d04                g_bdbAttrsDft
 .rodata.g_gpClusterList
                0x0000000020196d34       0x14 /cygdrive/c/Users/huangli/AppData/Local/Temp/concurrent_sampleLight_b92.elf.60zuQo.ltrans1.ltrans.o
 .rodata.g_null_securityKey
                0x0000000020196d48       0x10 /cygdrive/c/Users/huangli/AppData/Local/Temp/concurrent_sampleLight_b92.elf.60zuQo.ltrans1.ltrans.o
                0x0000000020196d48                g_null_securityKey
 .rodata.g_sampleLightClusterList
                0x0000000020196d58       0x8c /cygdrive/c/Users/huangli/AppData/Local/Temp/concurrent_sampleLight_b92.elf.60zuQo.ltrans1.ltrans.o
 .rodata.gpStubCbList
                0x0000000020196de4        0xc /cygdrive/c/Users/huangli/AppData/Local/Temp/concurrent_sampleLight_b92.elf.60zuQo.ltrans1.ltrans.o
 .rodata.gp_simpleDesc
                0x0000000020196df0       0x10 /cygdrive/c/Users/huangli/AppData/Local/Temp/concurrent_sampleLight_b92.elf.60zuQo.ltrans1.ltrans.o
 .rodata.linkKeyDistributedCertification
                0x0000000020196e00       0x10 /cygdrive/c/Users/huangli/AppData/Local/Temp/concurrent_sampleLight_b92.elf.60zuQo.ltrans1.ltrans.o
                0x0000000020196e00                linkKeyDistributedCertification
 .rodata.linkKeyDistributedMaster
                0x0000000020196e10       0x10 /cygdrive/c/Users/huangli/AppData/Local/Temp/concurrent_sampleLight_b92.elf.60zuQo.ltrans1.ltrans.o
                0x0000000020196e10                linkKeyDistributedMaster
 .rodata.my_Attributes
                0x0000000020196e20      0x300 /cygdrive/c/Users/huangli/AppData/Local/Temp/concurrent_sampleLight_b92.elf.60zuQo.ltrans1.ltrans.o
 .rodata.sampleLight_simpleDesc
                0x0000000020197120       0x10 /cygdrive/c/Users/huangli/AppData/Local/Temp/concurrent_sampleLight_b92.elf.60zuQo.ltrans1.ltrans.o
 .rodata.tcLinkKeyCentralDefault
                0x0000000020197130       0x10 /cygdrive/c/Users/huangli/AppData/Local/Temp/concurrent_sampleLight_b92.elf.60zuQo.ltrans1.ltrans.o
                0x0000000020197130                tcLinkKeyCentralDefault
 .rodata.touchLinkKeyCertification
                0x0000000020197140       0x10 /cygdrive/c/Users/huangli/AppData/Local/Temp/concurrent_sampleLight_b92.elf.60zuQo.ltrans1.ltrans.o
 .rodata.touchLinkKeyMaster
                0x0000000020197150       0x10 /cygdrive/c/Users/huangli/AppData/Local/Temp/concurrent_sampleLight_b92.elf.60zuQo.ltrans1.ltrans.o
 .rodata.zdoCfgAttrDefault
                0x0000000020197160       0x18 /cygdrive/c/Users/huangli/AppData/Local/Temp/concurrent_sampleLight_b92.elf.60zuQo.ltrans1.ltrans.o
 .rodata.zdoSd  0x0000000020197178       0x10 /cygdrive/c/Users/huangli/AppData/Local/Temp/concurrent_sampleLight_b92.elf.60zuQo.ltrans1.ltrans.o
 .rodata.matterCommissionTimeoutCb.str1.4
                0x0000000020197188       0x29 /cygdrive/c/Users/huangli/AppData/Local/Temp/concurrent_sampleLight_b92.elf.60zuQo.ltrans2.ltrans.o
 *fill*         0x00000000201971b1        0x3 
 .rodata.sampleLight_leaveCnfHandler.part.0.str1.4
                0x00000000201971b4       0x18 /cygdrive/c/Users/huangli/AppData/Local/Temp/concurrent_sampleLight_b92.elf.60zuQo.ltrans2.ltrans.o
 .rodata.ldsLightCurrentSceneIndexGet.str1.4
                0x00000000201971cc       0x36 /cygdrive/c/Users/huangli/AppData/Local/Temp/concurrent_sampleLight_b92.elf.60zuQo.ltrans2.ltrans.o
 *fill*         0x0000000020197202        0x2 
 .rodata.sampleLight_zclProcessIncomingMsg.str1.4
                0x0000000020197204       0x46 /cygdrive/c/Users/huangli/AppData/Local/Temp/concurrent_sampleLight_b92.elf.60zuQo.ltrans2.ltrans.o
 *fill*         0x000000002019724a        0x2 
 .rodata.sampleLight_groupCb.str1.4
                0x000000002019724c       0x2f /cygdrive/c/Users/huangli/AppData/Local/Temp/concurrent_sampleLight_b92.elf.60zuQo.ltrans2.ltrans.o
 *fill*         0x000000002019727b        0x1 
 .rodata.ldsSyncSceneIdInformation.str1.4
                0x000000002019727c       0x23 /cygdrive/c/Users/huangli/AppData/Local/Temp/concurrent_sampleLight_b92.elf.60zuQo.ltrans2.ltrans.o
 *fill*         0x000000002019729f        0x1 
 .rodata.sampleLight_lightNumCheckTimerCb.str1.4
                0x00000000201972a0       0x7f /cygdrive/c/Users/huangli/AppData/Local/Temp/concurrent_sampleLight_b92.elf.60zuQo.ltrans2.ltrans.o
 *fill*         0x000000002019731f        0x1 
 .rodata.ldsMoveTemperatureOrMoveColor.str1.4
                0x0000000020197320       0x24 /cygdrive/c/Users/huangli/AppData/Local/Temp/concurrent_sampleLight_b92.elf.60zuQo.ltrans2.ltrans.o
 .rodata.ikea_sceneTimerCb.str1.4
                0x0000000020197344       0x25 /cygdrive/c/Users/huangli/AppData/Local/Temp/concurrent_sampleLight_b92.elf.60zuQo.ltrans2.ltrans.o
 *fill*         0x0000000020197369        0x3 
 .rodata.factoryRst_timerCb.lto_priv.0.str1.4
                0x000000002019736c       0x21 /cygdrive/c/Users/huangli/AppData/Local/Temp/concurrent_sampleLight_b92.elf.60zuQo.ltrans2.ltrans.o
 *fill*         0x000000002019738d        0x3 
 .rodata.sampleLight_colorCtrlCb.str1.4
                0x0000000020197390       0x91 /cygdrive/c/Users/huangli/AppData/Local/Temp/concurrent_sampleLight_b92.elf.60zuQo.ltrans2.ltrans.o
 *fill*         0x0000000020197421        0x3 
 .rodata.sampleLight_levelCb.str1.4
                0x0000000020197424       0x1a /cygdrive/c/Users/huangli/AppData/Local/Temp/concurrent_sampleLight_b92.elf.60zuQo.ltrans2.ltrans.o
 *fill*         0x000000002019743e        0x2 
 .rodata.sampleLight_sceneCb.str1.4
                0x0000000020197440       0x7f /cygdrive/c/Users/huangli/AppData/Local/Temp/concurrent_sampleLight_b92.elf.60zuQo.ltrans2.ltrans.o
 *fill*         0x00000000201974bf        0x1 
 .rodata.ldsLightStatusGetSceneId.str1.4
                0x00000000201974c0       0x5a /cygdrive/c/Users/huangli/AppData/Local/Temp/concurrent_sampleLight_b92.elf.60zuQo.ltrans2.ltrans.o
 *fill*         0x000000002019751a        0x2 
 .rodata.zbdemo_bdbInitCb.str1.4
                0x000000002019751c       0x19 /cygdrive/c/Users/huangli/AppData/Local/Temp/concurrent_sampleLight_b92.elf.60zuQo.ltrans2.ltrans.o
 *fill*         0x0000000020197535        0x3 
 .rodata.zbdemo_bdbCommissioningCb.str1.4
                0x0000000020197538       0x3a /cygdrive/c/Users/huangli/AppData/Local/Temp/concurrent_sampleLight_b92.elf.60zuQo.ltrans2.ltrans.o
 *fill*         0x0000000020197572        0x2 
 .rodata        0x0000000020197574      0x12a /cygdrive/c/Users/huangli/AppData/Local/Temp/concurrent_sampleLight_b92.elf.60zuQo.ltrans2.ltrans.o
 *fill*         0x000000002019769e        0x2 
 .rodata.att_access_err_enc
                0x00000000201976a0       0x10 /cygdrive/c/Users/huangli/AppData/Local/Temp/concurrent_sampleLight_b92.elf.60zuQo.ltrans2.ltrans.o
 .rodata.att_access_err_no_enc
                0x00000000201976b0       0x10 /cygdrive/c/Users/huangli/AppData/Local/Temp/concurrent_sampleLight_b92.elf.60zuQo.ltrans2.ltrans.o
 .rodata.g_zbMacEventFromNwkTbl
                0x00000000201976c0       0x40 /cygdrive/c/Users/huangli/AppData/Local/Temp/concurrent_sampleLight_b92.elf.60zuQo.ltrans2.ltrans.o
 .rodata.g_zbNwkEventFromHighTbl
                0x0000000020197700       0x58 /cygdrive/c/Users/huangli/AppData/Local/Temp/concurrent_sampleLight_b92.elf.60zuQo.ltrans2.ltrans.o
 .rodata.g_zbNwkEventFromMacTbl
                0x0000000020197758       0x60 /cygdrive/c/Users/huangli/AppData/Local/Temp/concurrent_sampleLight_b92.elf.60zuQo.ltrans2.ltrans.o
 .rodata.signal_unCoC_handlers
                0x00000000201977b8       0x20 /cygdrive/c/Users/huangli/AppData/Local/Temp/concurrent_sampleLight_b92.elf.60zuQo.ltrans2.ltrans.o
 .rodata.ldsTrfTimerSchedule.cst4
                0x00000000201977d8       0x14 /cygdrive/c/Users/huangli/AppData/Local/Temp/concurrent_sampleLight_b92.elf.60zuQo.ltrans3.ltrans.o
                                         0x18 (size before relaxing)
 *fill*         0x00000000201977ec        0x4 
 .rodata.ldsTrfTimerSchedule.cst8
                0x00000000201977f0        0x8 /cygdrive/c/Users/huangli/AppData/Local/Temp/concurrent_sampleLight_b92.elf.60zuQo.ltrans3.ltrans.o
 .rodata.ldsI2cKp18057ChipDataTransform.part.0.cst4
                0x00000000201977f8       0x18 /cygdrive/c/Users/huangli/AppData/Local/Temp/concurrent_sampleLight_b92.elf.60zuQo.ltrans3.ltrans.o
                                         0x1c (size before relaxing)
 .rodata.ldsBulbDriverMinitrimCtrlMoveTo.part.0.cst4
                0x0000000020197810        0x8 /cygdrive/c/Users/huangli/AppData/Local/Temp/concurrent_sampleLight_b92.elf.60zuQo.ltrans3.ltrans.o
 .rodata.ldsBulbDriverMinitrimCtrlMoveTo.part.0.cst8
                0x0000000020197810        0x8 /cygdrive/c/Users/huangli/AppData/Local/Temp/concurrent_sampleLight_b92.elf.60zuQo.ltrans3.ltrans.o
 .rodata.ldsDriverCommonInit.cst4
                0x0000000020197818        0x8 /cygdrive/c/Users/huangli/AppData/Local/Temp/concurrent_sampleLight_b92.elf.60zuQo.ltrans3.ltrans.o
 .rodata.ldsDriverCommonInit.cst8
                0x0000000020197818        0x8 /cygdrive/c/Users/huangli/AppData/Local/Temp/concurrent_sampleLight_b92.elf.60zuQo.ltrans3.ltrans.o
 .rodata.ldsLightPwmLowBrightnessOpenOptimization.str1.4
                0x0000000020197820       0x30 /cygdrive/c/Users/huangli/AppData/Local/Temp/concurrent_sampleLight_b92.elf.60zuQo.ltrans3.ltrans.o
 .rodata.ldsLightPwmLowBrightnessOpenOptimization.cst8
                0x0000000020197850        0x8 /cygdrive/c/Users/huangli/AppData/Local/Temp/concurrent_sampleLight_b92.elf.60zuQo.ltrans3.ltrans.o
 .rodata.ldsLightPwmLowBrightnessOpenOptimization.cst4
                0x0000000020197858        0x4 /cygdrive/c/Users/huangli/AppData/Local/Temp/concurrent_sampleLight_b92.elf.60zuQo.ltrans3.ltrans.o
 .rodata.LDS_LOG.str1.4
                0x000000002019785c       0x22 /cygdrive/c/Users/huangli/AppData/Local/Temp/concurrent_sampleLight_b92.elf.60zuQo.ltrans3.ltrans.o
                                         0x27 (size before relaxing)
 *fill*         0x000000002019787e        0x2 
 .rodata.ldsDeivceNtcInit.cst4
                0x0000000020197880        0x4 /cygdrive/c/Users/huangli/AppData/Local/Temp/concurrent_sampleLight_b92.elf.60zuQo.ltrans3.ltrans.o
 .rodata.ldsLightEffectEventHandler.part.0.str1.4
                0x0000000020197884       0x45 /cygdrive/c/Users/huangli/AppData/Local/Temp/concurrent_sampleLight_b92.elf.60zuQo.ltrans3.ltrans.o
 *fill*         0x00000000201978c9        0x3 
 .rodata.ldsDimAlgorithmCalulateExpTable.lto_priv.0.cst4
                0x00000000201978cc        0x4 /cygdrive/c/Users/huangli/AppData/Local/Temp/concurrent_sampleLight_b92.elf.60zuQo.ltrans3.ltrans.o
                                          0x8 (size before relaxing)
 .rodata.ldsDimAlgorithmCalulateExpTable.lto_priv.0.cst8
                0x00000000201978d0        0x8 /cygdrive/c/Users/huangli/AppData/Local/Temp/concurrent_sampleLight_b92.elf.60zuQo.ltrans3.ltrans.o
 .rodata.ldsDriverI2cWrite.str1.4
                0x00000000201978d0       0x4c /cygdrive/c/Users/huangli/AppData/Local/Temp/concurrent_sampleLight_b92.elf.60zuQo.ltrans3.ltrans.o
 .rodata.ldsDriverI2cWrite.cst4
                0x000000002019791c        0x8 /cygdrive/c/Users/huangli/AppData/Local/Temp/concurrent_sampleLight_b92.elf.60zuQo.ltrans3.ltrans.o
                                         0x14 (size before relaxing)
 .rodata.ldsDeviceInformationInfo.str1.4
                0x0000000020197924       0x11 /cygdrive/c/Users/huangli/AppData/Local/Temp/concurrent_sampleLight_b92.elf.60zuQo.ltrans3.ltrans.o
 *fill*         0x0000000020197935        0x3 
 .rodata.ldsFactoryTestExit.str1.4
                0x0000000020197938       0x24 /cygdrive/c/Users/huangli/AppData/Local/Temp/concurrent_sampleLight_b92.elf.60zuQo.ltrans3.ltrans.o
 .rodata        0x000000002019795c       0x90 /cygdrive/c/Users/huangli/AppData/Local/Temp/concurrent_sampleLight_b92.elf.60zuQo.ltrans3.ltrans.o
 .rodata.g_table
                0x00000000201979ec       0xd4 /cygdrive/c/Users/huangli/AppData/Local/Temp/concurrent_sampleLight_b92.elf.60zuQo.ltrans3.ltrans.o
 .rodata.gen_method_legacy
                0x0000000020197ac0       0x64 /cygdrive/c/Users/huangli/AppData/Local/Temp/concurrent_sampleLight_b92.elf.60zuQo.ltrans3.ltrans.o
 .rodata.gen_method_sc
                0x0000000020197b24       0x64 /cygdrive/c/Users/huangli/AppData/Local/Temp/concurrent_sampleLight_b92.elf.60zuQo.ltrans3.ltrans.o
 .rodata.macPibDefault
                0x0000000020197b88       0x4c /cygdrive/c/Users/huangli/AppData/Local/Temp/concurrent_sampleLight_b92.elf.60zuQo.ltrans3.ltrans.o
 .rodata.nwkKeyDefault
                0x0000000020197bd4       0x10 /cygdrive/c/Users/huangli/AppData/Local/Temp/concurrent_sampleLight_b92.elf.60zuQo.ltrans3.ltrans.o
 .rodata.g_zbMacMlmeEventFromPhyTbl
                0x0000000020197be4       0x38 /cygdrive/c/Users/huangli/AppData/Local/Temp/concurrent_sampleLight_b92.elf.60zuQo.ltrans4.ltrans.o
 .rodata.nwkNibDefault
                0x0000000020197c1c       0x3c /cygdrive/c/Users/huangli/AppData/Local/Temp/concurrent_sampleLight_b92.elf.60zuQo.ltrans4.ltrans.o
                0x0000000020197c1c                nwkNibDefault
 .rodata.ldsMinitrimStart.constprop.0.cst4
                0x0000000020197c58        0x8 /cygdrive/c/Users/huangli/AppData/Local/Temp/concurrent_sampleLight_b92.elf.60zuQo.ltrans6.ltrans.o
 .rodata.ldsMinitrimStart.constprop.0.cst8
                0x0000000020197c58        0x8 /cygdrive/c/Users/huangli/AppData/Local/Temp/concurrent_sampleLight_b92.elf.60zuQo.ltrans6.ltrans.o
 .rodata.initLightControlState.constprop.0.str1.4
                0x0000000020197c60       0x6d /cygdrive/c/Users/huangli/AppData/Local/Temp/concurrent_sampleLight_b92.elf.60zuQo.ltrans6.ltrans.o
 *fill*         0x0000000020197ccd        0x3 
 .rodata.init_to_startup.constprop.0.cst4
                0x0000000020197cd0        0x4 /cygdrive/c/Users/huangli/AppData/Local/Temp/concurrent_sampleLight_b92.elf.60zuQo.ltrans6.ltrans.o
 .rodata.str1.4
                0x0000000020197cd4       0x34 /cygdrive/c/Users/huangli/AppData/Local/Temp/concurrent_sampleLight_b92.elf.60zuQo.ltrans6.ltrans.o
                                         0x31 (size before relaxing)
 .rodata.timeoutsCb
                0x0000000020197d08       0x2c /cygdrive/c/Users/huangli/AppData/Local/Temp/concurrent_sampleLight_b92.elf.60zuQo.ltrans6.ltrans.o
 .rodata.onoff_attribute_change_handle.part.0.isra.0.cst4
                0x0000000020197d34        0x4 /cygdrive/c/Users/huangli/AppData/Local/Temp/concurrent_sampleLight_b92.elf.60zuQo.ltrans7.ltrans.o
                                          0x8 (size before relaxing)
 .rodata.cmd_length_array
                0x0000000020197d38       0x3a /cygdrive/c/Users/huangli/AppData/Local/Temp/concurrent_sampleLight_b92.elf.60zuQo.ltrans7.ltrans.o
 *fill*         0x0000000020197d72        0x6 
 .rodata.exp.cst8
                0x0000000020197d78       0x18 C:\TelinkIoTStudio\RDS\V5.1.2\toolchains\nds32le-elf-mculib-v5f\riscv32-elf\lib/libm.a(lib_a-exp.o)
 .rodata.__exp_data
                0x0000000020197d90      0x870 C:\TelinkIoTStudio\RDS\V5.1.2\toolchains\nds32le-elf-mculib-v5f\riscv32-elf\lib/libm.a(lib_a-exp_data.o)
                0x0000000020197d90                __exp_data
 .rodata.log.cst8
                0x0000000020198600       0x10 C:\TelinkIoTStudio\RDS\V5.1.2\toolchains\nds32le-elf-mculib-v5f\riscv32-elf\lib/libm.a(lib_a-log.o)
                                         0x18 (size before relaxing)
 .rodata.__log_data
                0x0000000020198610     0x1090 C:\TelinkIoTStudio\RDS\V5.1.2\toolchains\nds32le-elf-mculib-v5f\riscv32-elf\lib/libm.a(lib_a-log_data.o)
                0x0000000020198610                __log_data
 .rodata.__math_uflow.cst8
                0x00000000201996a0        0x8 C:\TelinkIoTStudio\RDS\V5.1.2\toolchains\nds32le-elf-mculib-v5f\riscv32-elf\lib/libm.a(lib_a-math_err.o)
 .rodata.__math_oflow.cst8
                0x00000000201996a8        0x8 C:\TelinkIoTStudio\RDS\V5.1.2\toolchains\nds32le-elf-mculib-v5f\riscv32-elf\lib/libm.a(lib_a-math_err.o)
 .rodata.__math_divzero.cst8
                0x00000000201996b0        0x8 C:\TelinkIoTStudio\RDS\V5.1.2\toolchains\nds32le-elf-mculib-v5f\riscv32-elf\lib/libm.a(lib_a-math_err.o)
                                         0x10 (size before relaxing)
 .rodata.__math_check_oflow.cst8
                0x00000000201996b8        0x8 C:\TelinkIoTStudio\RDS\V5.1.2\toolchains\nds32le-elf-mculib-v5f\riscv32-elf\lib/libm.a(lib_a-math_err.o)
 .rodata.ceilf.cst4
                0x00000000201996c0        0x4 C:\TelinkIoTStudio\RDS\V5.1.2\toolchains\nds32le-elf-mculib-v5f\riscv32-elf\lib/libm.a(lib_a-sf_ceil.o)
 .rodata        0x00000000201996c4      0x100 /cygdrive/c/TelinkIoTStudio/RDS/V5.1.2/toolchains/nds32le-elf-mculib-v5f/bin/../lib/gcc/riscv32-elf/10.3.0/mext-dsp/libgcc.a(_clz.o)
                0x00000000201996c4                __clz_tab
 .rodata.__digits
                0x00000000201997c4       0x10 C:\TelinkIoTStudio\RDS\V5.1.2\toolchains\nds32le-elf-mculib-v5f\riscv32-elf\lib/libc.a(lib_a-printf_data.o)
                0x00000000201997c4                __digits
 .rodata.__printf_impl
                0x00000000201997d4       0x84 C:\TelinkIoTStudio\RDS\V5.1.2\toolchains\nds32le-elf-mculib-v5f\riscv32-elf\lib/libc.a(lib_a-printf_impl.o)
 .rodata.__printf_float_impl.str1.4
                0x0000000020199858        0x8 C:\TelinkIoTStudio\RDS\V5.1.2\toolchains\nds32le-elf-mculib-v5f\riscv32-elf\lib/libc.a(lib_a-printf_impl_float.o)

.eh_frame_hdr   0x0000000020199860        0x0
 *(.eh_frame_hdr)
                0x0000000020199860                . = ALIGN (0x20)

.eh_frame       0x0000000020199860       0xf8
 *(.eh_frame)
 .eh_frame      0x0000000020199860       0xf8 /cygdrive/c/TelinkIoTStudio/RDS/V5.1.2/toolchains/nds32le-elf-mculib-v5f/bin/../lib/gcc/riscv32-elf/10.3.0/mext-dsp/libgcc.a(save-restore.o)

.rela.dyn       0x0000000020199958        0x0
 .rela.vectors  0x0000000020199958        0x0 ./platform/boot/b92/cstartup_b92.o
 .rela.retention_reset
                0x0000000020199958        0x0 ./platform/boot/b92/cstartup_b92.o
 .rela.ram_code
                0x0000000020199958        0x0 ./platform/boot/b92/cstartup_b92.o

.exec.itable    0x0000000020199958        0x0
 *(.exec.itable)
                0x000000000000a208                . = ((0x80000 * __DRAM_1_EN) + (ALIGN ((ADDR (.ram_code) + SIZEOF (.ram_code)), 0x8) * __DRAM_DIS))
                0x000000000000aa08                PROVIDE (__global_pointer$ = (. + 0x800))

.data           0x000000000000a208      0x6de load address 0x0000000020199958
 *(.data .data.* .gnu.linkonce.d.*)
 .data.rf_power_Level_list
                0x000000000000a208       0xf0 /cygdrive/c/Users/huangli/AppData/Local/Temp/concurrent_sampleLight_b92.elf.60zuQo.ltrans0.ltrans.o
                0x000000000000a208                rf_power_Level_list
 .data.g_zllTouchLink
                0x000000000000a2f8       0x50 /cygdrive/c/Users/huangli/AppData/Local/Temp/concurrent_sampleLight_b92.elf.60zuQo.ltrans0.ltrans.o
                0x000000000000a2f8                g_zllTouchLink
 .data.ndt.lto_priv.0
                0x000000000000a348        0xd /cygdrive/c/Users/huangli/AppData/Local/Temp/concurrent_sampleLight_b92.elf.60zuQo.ltrans0.ltrans.o
                0x000000000000a348                ndt.lto_priv.0
 *fill*         0x000000000000a355        0x3 
 .data.ss_ib    0x000000000000a358       0x51 /cygdrive/c/Users/huangli/AppData/Local/Temp/concurrent_sampleLight_b92.elf.60zuQo.ltrans0.ltrans.o
                0x000000000000a358                ss_ib
 *fill*         0x000000000000a3a9        0x3 
 .data          0x000000000000a3ac        0x6 /cygdrive/c/Users/huangli/AppData/Local/Temp/concurrent_sampleLight_b92.elf.60zuQo.ltrans1.ltrans.o
                0x000000000000a3ac                blms_tx_empty_packet
 *fill*         0x000000000000a3b2        0x2 
 .data.zclGpAttr_gpLinkKey
                0x000000000000a3b4       0x10 /cygdrive/c/Users/huangli/AppData/Local/Temp/concurrent_sampleLight_b92.elf.60zuQo.ltrans1.ltrans.o
 .data.basic_attrTbl
                0x000000000000a3c4       0x58 /cygdrive/c/Users/huangli/AppData/Local/Temp/concurrent_sampleLight_b92.elf.60zuQo.ltrans1.ltrans.o
 .data.pkt_scanReq
                0x000000000000a41c       0x14 /cygdrive/c/Users/huangli/AppData/Local/Temp/concurrent_sampleLight_b92.elf.60zuQo.ltrans1.ltrans.o
                0x000000000000a41c                pkt_scanReq
 .data.CCTPercentList.lto_priv.0
                0x000000000000a430       0x5a /cygdrive/c/Users/huangli/AppData/Local/Temp/concurrent_sampleLight_b92.elf.60zuQo.ltrans1.ltrans.o
                0x000000000000a430                CCTPercentList.lto_priv.0
 *fill*         0x000000000000a48a        0x2 
 .data.bltSche_header
                0x000000000000a48c       0x1c /cygdrive/c/Users/huangli/AppData/Local/Temp/concurrent_sampleLight_b92.elf.60zuQo.ltrans1.ltrans.o
 .data.gLightingAlgParam.lto_priv.0
                0x000000000000a4a8       0x1c /cygdrive/c/Users/huangli/AppData/Local/Temp/concurrent_sampleLight_b92.elf.60zuQo.ltrans1.ltrans.o
                0x000000000000a4a8                gLightingAlgParam.lto_priv.0
 .data.g_bdbCommissionSetting
                0x000000000000a4c4       0x1c /cygdrive/c/Users/huangli/AppData/Local/Temp/concurrent_sampleLight_b92.elf.60zuQo.ltrans1.ltrans.o
 .data.g_gppCtx
                0x000000000000a4e0       0x14 /cygdrive/c/Users/huangli/AppData/Local/Temp/concurrent_sampleLight_b92.elf.60zuQo.ltrans1.ltrans.o
 .data.g_zbDemoBdbCb
                0x000000000000a4f4       0x10 /cygdrive/c/Users/huangli/AppData/Local/Temp/concurrent_sampleLight_b92.elf.60zuQo.ltrans1.ltrans.o
 .data.g_zcl_basicAttrs
                0x000000000000a504       0x66 /cygdrive/c/Users/huangli/AppData/Local/Temp/concurrent_sampleLight_b92.elf.60zuQo.ltrans1.ltrans.o
 *fill*         0x000000000000a56a        0x2 
 .data.g_zcl_colorCtrlAttrs
                0x000000000000a56c       0x1e /cygdrive/c/Users/huangli/AppData/Local/Temp/concurrent_sampleLight_b92.elf.60zuQo.ltrans1.ltrans.o
                0x000000000000a56c                g_zcl_colorCtrlAttrs
 *fill*         0x000000000000a58a        0x2 
 .data.myUartDriver
                0x000000000000a58c        0xc /cygdrive/c/Users/huangli/AppData/Local/Temp/concurrent_sampleLight_b92.elf.60zuQo.ltrans1.ltrans.o
 .data.pkt_Adv  0x000000000000a598       0x2c /cygdrive/c/Users/huangli/AppData/Local/Temp/concurrent_sampleLight_b92.elf.60zuQo.ltrans1.ltrans.o
                0x000000000000a598                pkt_Adv
 .data.pkt_scanRsp
                0x000000000000a5c4       0x2c /cygdrive/c/Users/huangli/AppData/Local/Temp/concurrent_sampleLight_b92.elf.60zuQo.ltrans1.ltrans.o
                0x000000000000a5c4                pkt_scanRsp
 .data.tbl_advData
                0x000000000000a5f0        0xf /cygdrive/c/Users/huangli/AppData/Local/Temp/concurrent_sampleLight_b92.elf.60zuQo.ltrans1.ltrans.o
 *fill*         0x000000000000a5ff        0x1 
 .data.tbl_scanRsp
                0x000000000000a600       0x11 /cygdrive/c/Users/huangli/AppData/Local/Temp/concurrent_sampleLight_b92.elf.60zuQo.ltrans1.ltrans.o
 *fill*         0x000000000000a611        0x3 
 .data          0x000000000000a614       0x28 /cygdrive/c/Users/huangli/AppData/Local/Temp/concurrent_sampleLight_b92.elf.60zuQo.ltrans2.ltrans.o
                0x000000000000a614                pdu_27b_tifs_27b_sslot
 .data.__nonRetentionHeader.lto_priv.0
                0x000000000000a63c       0x20 /cygdrive/c/Users/huangli/AppData/Local/Temp/concurrent_sampleLight_b92.elf.60zuQo.ltrans2.ltrans.o
                0x000000000000a63c                __nonRetentionHeader.lto_priv.0
 .data.att_pre_write
                0x000000000000a65c        0xc /cygdrive/c/Users/huangli/AppData/Local/Temp/concurrent_sampleLight_b92.elf.60zuQo.ltrans2.ltrans.o
 .data.blmhostChnClassUpt
                0x000000000000a668       0x10 /cygdrive/c/Users/huangli/AppData/Local/Temp/concurrent_sampleLight_b92.elf.60zuQo.ltrans2.ltrans.o
                0x000000000000a668                blmhostChnClassUpt
 .data.bltPHYs  0x000000000000a678       0x10 /cygdrive/c/Users/huangli/AppData/Local/Temp/concurrent_sampleLight_b92.elf.60zuQo.ltrans2.ltrans.o
                0x000000000000a678                bltPHYs
 .data.pkt_errRsp
                0x000000000000a688        0xb /cygdrive/c/Users/huangli/AppData/Local/Temp/concurrent_sampleLight_b92.elf.60zuQo.ltrans2.ltrans.o
 *fill*         0x000000000000a693        0x1 
 .data.pkt_init
                0x000000000000a694       0x28 /cygdrive/c/Users/huangli/AppData/Local/Temp/concurrent_sampleLight_b92.elf.60zuQo.ltrans2.ltrans.o
 .data.smpResSignalPkt
                0x000000000000a6bc       0x1c /cygdrive/c/Users/huangli/AppData/Local/Temp/concurrent_sampleLight_b92.elf.60zuQo.ltrans2.ltrans.o
                0x000000000000a6bc                smpResSignalPkt
 .data.crc32_half_tbl.lto_priv.0
                0x000000000000a6d8       0x40 /cygdrive/c/Users/huangli/AppData/Local/Temp/concurrent_sampleLight_b92.elf.60zuQo.ltrans3.ltrans.o
                0x000000000000a6d8                crc32_half_tbl.lto_priv.0
 .data.g_trf_temp
                0x000000000000a718       0x24 /cygdrive/c/Users/huangli/AppData/Local/Temp/concurrent_sampleLight_b92.elf.60zuQo.ltrans3.ltrans.o
 .data.sg_i2c_chip_param.lto_priv.0
                0x000000000000a73c        0xc /cygdrive/c/Users/huangli/AppData/Local/Temp/concurrent_sampleLight_b92.elf.60zuQo.ltrans3.ltrans.o
 .data.sg_i2c_chip_param.lto_priv.1
                0x000000000000a748       0x10 /cygdrive/c/Users/huangli/AppData/Local/Temp/concurrent_sampleLight_b92.elf.60zuQo.ltrans3.ltrans.o
 .data.smpPairingOwnIRK
                0x000000000000a758       0x10 /cygdrive/c/Users/huangli/AppData/Local/Temp/concurrent_sampleLight_b92.elf.60zuQo.ltrans3.ltrans.o
 .data          0x000000000000a768        0x8 /cygdrive/c/Users/huangli/AppData/Local/Temp/concurrent_sampleLight_b92.elf.60zuQo.ltrans7.ltrans.o
 *(.gnu.linkonce.d.*personality*)
 *(.srodata.cst16)
 *(.srodata.cst8)
 *(.srodata.cst4)
 *(.srodata.cst2)
 *(.srodata .srodata.*)
 .srodata.g_invalid_addr
                0x000000000000a770        0x8 /cygdrive/c/Users/huangli/AppData/Local/Temp/concurrent_sampleLight_b92.elf.60zuQo.ltrans0.ltrans.o
                0x000000000000a770                g_invalid_addr
 .srodata.g_zero_addr
                0x000000000000a778        0x8 /cygdrive/c/Users/huangli/AppData/Local/Temp/concurrent_sampleLight_b92.elf.60zuQo.ltrans0.ltrans.o
                0x000000000000a778                g_zero_addr
 .srodata.rf_rx_dma_config
                0x000000000000a780        0x4 /cygdrive/c/Users/huangli/AppData/Local/Temp/concurrent_sampleLight_b92.elf.60zuQo.ltrans0.ltrans.o
                0x000000000000a780                rf_rx_dma_config
 .srodata.rf_tx_dma_config
                0x000000000000a784        0x4 /cygdrive/c/Users/huangli/AppData/Local/Temp/concurrent_sampleLight_b92.elf.60zuQo.ltrans0.ltrans.o
                0x000000000000a784                rf_tx_dma_config
 .srodata.zcl_attr_global_clusterRevision
                0x000000000000a788        0x2 /cygdrive/c/Users/huangli/AppData/Local/Temp/concurrent_sampleLight_b92.elf.60zuQo.ltrans1.ltrans.o
 *fill*         0x000000000000a78a        0x2 
 .srodata.gp_outClusterList
                0x000000000000a78c        0x2 /cygdrive/c/Users/huangli/AppData/Local/Temp/concurrent_sampleLight_b92.elf.60zuQo.ltrans1.ltrans.o
 *fill*         0x000000000000a78e        0x2 
 .srodata.my_OtaName
                0x000000000000a790        0x3 /cygdrive/c/Users/huangli/AppData/Local/Temp/concurrent_sampleLight_b92.elf.60zuQo.ltrans1.ltrans.o
 *fill*         0x000000000000a793        0x1 
 .srodata.userdesc_UUID
                0x000000000000a794        0x2 /cygdrive/c/Users/huangli/AppData/Local/Temp/concurrent_sampleLight_b92.elf.60zuQo.ltrans1.ltrans.o
 .srodata.my_batCharUUID
                0x000000000000a796        0x2 /cygdrive/c/Users/huangli/AppData/Local/Temp/concurrent_sampleLight_b92.elf.60zuQo.ltrans1.ltrans.o
 .srodata.my_batCharVal
                0x000000000000a798        0x5 /cygdrive/c/Users/huangli/AppData/Local/Temp/concurrent_sampleLight_b92.elf.60zuQo.ltrans1.ltrans.o
 *fill*         0x000000000000a79d        0x1 
 .srodata.my_batServiceUUID
                0x000000000000a79e        0x2 /cygdrive/c/Users/huangli/AppData/Local/Temp/concurrent_sampleLight_b92.elf.60zuQo.ltrans1.ltrans.o
 .srodata.my_PnPtrs
                0x000000000000a7a0        0x7 /cygdrive/c/Users/huangli/AppData/Local/Temp/concurrent_sampleLight_b92.elf.60zuQo.ltrans1.ltrans.o
 *fill*         0x000000000000a7a7        0x1 
 .srodata.my_PnPUUID
                0x000000000000a7a8        0x2 /cygdrive/c/Users/huangli/AppData/Local/Temp/concurrent_sampleLight_b92.elf.60zuQo.ltrans1.ltrans.o
 *fill*         0x000000000000a7aa        0x2 
 .srodata.my_PnCharVal
                0x000000000000a7ac        0x5 /cygdrive/c/Users/huangli/AppData/Local/Temp/concurrent_sampleLight_b92.elf.60zuQo.ltrans1.ltrans.o
 *fill*         0x000000000000a7b1        0x1 
 .srodata.my_devServiceUUID
                0x000000000000a7b2        0x2 /cygdrive/c/Users/huangli/AppData/Local/Temp/concurrent_sampleLight_b92.elf.60zuQo.ltrans1.ltrans.o
 .srodata.clientCharacterCfgUUID
                0x000000000000a7b4        0x2 /cygdrive/c/Users/huangli/AppData/Local/Temp/concurrent_sampleLight_b92.elf.60zuQo.ltrans1.ltrans.o
 .srodata.serviceChangeUUID
                0x000000000000a7b6        0x2 /cygdrive/c/Users/huangli/AppData/Local/Temp/concurrent_sampleLight_b92.elf.60zuQo.ltrans1.ltrans.o
 .srodata.my_serviceChangeCharVal
                0x000000000000a7b8        0x5 /cygdrive/c/Users/huangli/AppData/Local/Temp/concurrent_sampleLight_b92.elf.60zuQo.ltrans1.ltrans.o
 *fill*         0x000000000000a7bd        0x1 
 .srodata.my_gattServiceUUID
                0x000000000000a7be        0x2 /cygdrive/c/Users/huangli/AppData/Local/Temp/concurrent_sampleLight_b92.elf.60zuQo.ltrans1.ltrans.o
 .srodata.my_periConnParameters
                0x000000000000a7c0        0x8 /cygdrive/c/Users/huangli/AppData/Local/Temp/concurrent_sampleLight_b92.elf.60zuQo.ltrans1.ltrans.o
 .srodata.my_periConnParamUUID
                0x000000000000a7c8        0x2 /cygdrive/c/Users/huangli/AppData/Local/Temp/concurrent_sampleLight_b92.elf.60zuQo.ltrans1.ltrans.o
 *fill*         0x000000000000a7ca        0x2 
 .srodata.my_periConnParamCharVal
                0x000000000000a7cc        0x5 /cygdrive/c/Users/huangli/AppData/Local/Temp/concurrent_sampleLight_b92.elf.60zuQo.ltrans1.ltrans.o
 *fill*         0x000000000000a7d1        0x1 
 .srodata.my_appearance
                0x000000000000a7d2        0x2 /cygdrive/c/Users/huangli/AppData/Local/Temp/concurrent_sampleLight_b92.elf.60zuQo.ltrans1.ltrans.o
 .srodata.my_appearanceUUID
                0x000000000000a7d4        0x2 /cygdrive/c/Users/huangli/AppData/Local/Temp/concurrent_sampleLight_b92.elf.60zuQo.ltrans1.ltrans.o
 *fill*         0x000000000000a7d6        0x2 
 .srodata.my_appearanceCharVal
                0x000000000000a7d8        0x5 /cygdrive/c/Users/huangli/AppData/Local/Temp/concurrent_sampleLight_b92.elf.60zuQo.ltrans1.ltrans.o
 *fill*         0x000000000000a7dd        0x1 
 .srodata.my_devNameUUID
                0x000000000000a7de        0x2 /cygdrive/c/Users/huangli/AppData/Local/Temp/concurrent_sampleLight_b92.elf.60zuQo.ltrans1.ltrans.o
 .srodata.my_devNameCharVal
                0x000000000000a7e0        0x5 /cygdrive/c/Users/huangli/AppData/Local/Temp/concurrent_sampleLight_b92.elf.60zuQo.ltrans1.ltrans.o
 *fill*         0x000000000000a7e5        0x1 
 .srodata.my_characterUUID
                0x000000000000a7e6        0x2 /cygdrive/c/Users/huangli/AppData/Local/Temp/concurrent_sampleLight_b92.elf.60zuQo.ltrans1.ltrans.o
 .srodata.my_gapServiceUUID
                0x000000000000a7e8        0x2 /cygdrive/c/Users/huangli/AppData/Local/Temp/concurrent_sampleLight_b92.elf.60zuQo.ltrans1.ltrans.o
 .srodata.my_primaryServiceUUID
                0x000000000000a7ea        0x2 /cygdrive/c/Users/huangli/AppData/Local/Temp/concurrent_sampleLight_b92.elf.60zuQo.ltrans1.ltrans.o
 .srodata.bdb_touchlinkCb
                0x000000000000a7ec        0x8 /cygdrive/c/Users/huangli/AppData/Local/Temp/concurrent_sampleLight_b92.elf.60zuQo.ltrans1.ltrans.o
 .srodata.gpAppCbList
                0x000000000000a7f4        0x8 /cygdrive/c/Users/huangli/AppData/Local/Temp/concurrent_sampleLight_b92.elf.60zuQo.ltrans1.ltrans.o
 .srodata.startIEEEAddr
                0x000000000000a7fc        0x3 /cygdrive/c/Users/huangli/AppData/Local/Temp/concurrent_sampleLight_b92.elf.60zuQo.ltrans1.ltrans.o
 *fill*         0x000000000000a7ff        0x1 
 .srodata.touchLink_attrTbl
                0x000000000000a800        0x8 /cygdrive/c/Users/huangli/AppData/Local/Temp/concurrent_sampleLight_b92.elf.60zuQo.ltrans1.ltrans.o
 .srodata.crc16_poly
                0x000000000000a808        0x4 /cygdrive/c/Users/huangli/AppData/Local/Temp/concurrent_sampleLight_b92.elf.60zuQo.ltrans2.ltrans.o
 .srodata.g_ikea_color_table
                0x000000000000a80c        0x8 /cygdrive/c/Users/huangli/AppData/Local/Temp/concurrent_sampleLight_b92.elf.60zuQo.ltrans2.ltrans.o
 *(.sdata .sdata.* .gnu.linkonce.s.*)
 .sdata.cnt_rssi
                0x000000000000a814        0x4 /cygdrive/c/Users/huangli/AppData/Local/Temp/concurrent_sampleLight_b92.elf.60zuQo.ltrans0.ltrans.o
                0x000000000000a814                cnt_rssi
 .sdata.zclGpAttr_clusterRev
                0x000000000000a818        0x2 /cygdrive/c/Users/huangli/AppData/Local/Temp/concurrent_sampleLight_b92.elf.60zuQo.ltrans1.ltrans.o
 *fill*         0x000000000000a81a        0x2 
 .sdata.my_batVal
                0x000000000000a81c        0x1 /cygdrive/c/Users/huangli/AppData/Local/Temp/concurrent_sampleLight_b92.elf.60zuQo.ltrans1.ltrans.o
 *fill*         0x000000000000a81d        0x3 
 .sdata.FLASH_SMP_MARK_OFFSET.lto_priv.0
                0x000000000000a820        0x4 /cygdrive/c/Users/huangli/AppData/Local/Temp/concurrent_sampleLight_b92.elf.60zuQo.ltrans1.ltrans.o
                0x000000000000a820                FLASH_SMP_MARK_OFFSET.lto_priv.0
 .sdata.SMP_PARAM_NV_ADDR_START.lto_priv.0
                0x000000000000a824        0x4 /cygdrive/c/Users/huangli/AppData/Local/Temp/concurrent_sampleLight_b92.elf.60zuQo.ltrans1.ltrans.o
                0x000000000000a824                SMP_PARAM_NV_ADDR_START.lto_priv.0
 .sdata.SMP_PARAM_NV_MAX_LEN
                0x000000000000a828        0x4 /cygdrive/c/Users/huangli/AppData/Local/Temp/concurrent_sampleLight_b92.elf.60zuQo.ltrans1.ltrans.o
                0x000000000000a828                SMP_PARAM_NV_MAX_LEN
 .sdata.T_code  0x000000000000a82c        0x1 /cygdrive/c/Users/huangli/AppData/Local/Temp/concurrent_sampleLight_b92.elf.60zuQo.ltrans1.ltrans.o
 *fill*         0x000000000000a82d        0x3 
 .sdata.ble_macAddr
                0x000000000000a830        0x6 /cygdrive/c/Users/huangli/AppData/Local/Temp/concurrent_sampleLight_b92.elf.60zuQo.ltrans1.ltrans.o
 .sdata.dGpStubHandle.lto_priv.0
                0x000000000000a836        0x1 /cygdrive/c/Users/huangli/AppData/Local/Temp/concurrent_sampleLight_b92.elf.60zuQo.ltrans1.ltrans.o
                0x000000000000a836                dGpStubHandle.lto_priv.0
 *fill*         0x000000000000a837        0x1 
 .sdata.g_adc_vref
                0x000000000000a838        0x2 /cygdrive/c/Users/huangli/AppData/Local/Temp/concurrent_sampleLight_b92.elf.60zuQo.ltrans1.ltrans.o
                0x000000000000a838                g_adc_vref
 *fill*         0x000000000000a83a        0x2 
 .sdata.g_fifo_chn
                0x000000000000a83c        0x4 /cygdrive/c/Users/huangli/AppData/Local/Temp/concurrent_sampleLight_b92.elf.60zuQo.ltrans1.ltrans.o
                0x000000000000a83c                g_fifo_chn
 .sdata.g_gpBaseCtx
                0x000000000000a840        0x8 /cygdrive/c/Users/huangli/AppData/Local/Temp/concurrent_sampleLight_b92.elf.60zuQo.ltrans1.ltrans.o
                0x000000000000a840                g_gpBaseCtx
 .sdata.g_touchlinkAttrDft
                0x000000000000a848        0x8 /cygdrive/c/Users/huangli/AppData/Local/Temp/concurrent_sampleLight_b92.elf.60zuQo.ltrans1.ltrans.o
 .sdata.g_u32CfgFlashAddr
                0x000000000000a850        0x4 /cygdrive/c/Users/huangli/AppData/Local/Temp/concurrent_sampleLight_b92.elf.60zuQo.ltrans1.ltrans.o
 .sdata.g_u32MacFlashAddr
                0x000000000000a854        0x4 /cygdrive/c/Users/huangli/AppData/Local/Temp/concurrent_sampleLight_b92.elf.60zuQo.ltrans1.ltrans.o
                0x000000000000a854                g_u32MacFlashAddr
 .sdata.g_zcl_levelAttrs
                0x000000000000a858        0x8 /cygdrive/c/Users/huangli/AppData/Local/Temp/concurrent_sampleLight_b92.elf.60zuQo.ltrans1.ltrans.o
                0x000000000000a858                g_zcl_levelAttrs
 .sdata.g_zcl_onOffAttrs
                0x000000000000a860        0x8 /cygdrive/c/Users/huangli/AppData/Local/Temp/concurrent_sampleLight_b92.elf.60zuQo.ltrans1.ltrans.o
                0x000000000000a860                g_zcl_onOffAttrs
 .sdata.gap_eventMask
                0x000000000000a868        0x4 /cygdrive/c/Users/huangli/AppData/Local/Temp/concurrent_sampleLight_b92.elf.60zuQo.ltrans1.ltrans.o
                0x000000000000a868                gap_eventMask
 .sdata.hci_eventMask
                0x000000000000a86c        0x4 /cygdrive/c/Users/huangli/AppData/Local/Temp/concurrent_sampleLight_b92.elf.60zuQo.ltrans1.ltrans.o
                0x000000000000a86c                hci_eventMask
 .sdata.hci_le_eventMask
                0x000000000000a870        0x4 /cygdrive/c/Users/huangli/AppData/Local/Temp/concurrent_sampleLight_b92.elf.60zuQo.ltrans1.ltrans.o
                0x000000000000a870                hci_le_eventMask
 .sdata.pwm.lto_priv.0
                0x000000000000a874        0x8 /cygdrive/c/Users/huangli/AppData/Local/Temp/concurrent_sampleLight_b92.elf.60zuQo.ltrans1.ltrans.o
                0x000000000000a874                pwm.lto_priv.0
 .sdata.sys_clk
                0x000000000000a87c        0x6 /cygdrive/c/Users/huangli/AppData/Local/Temp/concurrent_sampleLight_b92.elf.60zuQo.ltrans1.ltrans.o
                0x000000000000a87c                sys_clk
 *fill*         0x000000000000a882        0x2 
 .sdata.touchLinkCb
                0x000000000000a884        0x8 /cygdrive/c/Users/huangli/AppData/Local/Temp/concurrent_sampleLight_b92.elf.60zuQo.ltrans1.ltrans.o
 .sdata.utcTime
                0x000000000000a88c        0x8 /cygdrive/c/Users/huangli/AppData/Local/Temp/concurrent_sampleLight_b92.elf.60zuQo.ltrans1.ltrans.o
 .sdata.zclGpAttr_gppMaxProxyTabEntries
                0x000000000000a894        0x1 /cygdrive/c/Users/huangli/AppData/Local/Temp/concurrent_sampleLight_b92.elf.60zuQo.ltrans1.ltrans.o
 *fill*         0x000000000000a895        0x3 
 .sdata.LL_FEATURE_MASK_0
                0x000000000000a898        0x4 /cygdrive/c/Users/huangli/AppData/Local/Temp/concurrent_sampleLight_b92.elf.60zuQo.ltrans2.ltrans.o
                0x000000000000a898                LL_FEATURE_MASK_0
 .sdata.blc_SecReq_ctrl
                0x000000000000a89c        0x4 /cygdrive/c/Users/huangli/AppData/Local/Temp/concurrent_sampleLight_b92.elf.60zuQo.ltrans2.ltrans.o
                0x000000000000a89c                blc_SecReq_ctrl
 .sdata.blc_extadv_channel
                0x000000000000a8a0        0x3 /cygdrive/c/Users/huangli/AppData/Local/Temp/concurrent_sampleLight_b92.elf.60zuQo.ltrans2.ltrans.o
 *fill*         0x000000000000a8a3        0x1 
 .sdata.blc_legadv_channel
                0x000000000000a8a4        0x3 /cygdrive/c/Users/huangli/AppData/Local/Temp/concurrent_sampleLight_b92.elf.60zuQo.ltrans2.ltrans.o
                0x000000000000a8a4                blc_legadv_channel
 *fill*         0x000000000000a8a7        0x1 
 .sdata.blt_smpTrig
                0x000000000000a8a8        0x4 /cygdrive/c/Users/huangli/AppData/Local/Temp/concurrent_sampleLight_b92.elf.60zuQo.ltrans2.ltrans.o
                0x000000000000a8a8                blt_smpTrig
 .sdata.gattcStateChange.lto_priv.0
                0x000000000000a8ac        0x8 /cygdrive/c/Users/huangli/AppData/Local/Temp/concurrent_sampleLight_b92.elf.60zuQo.ltrans2.ltrans.o
                0x000000000000a8ac                gattcStateChange.lto_priv.0
 .sdata.s_flash_preempt_config
                0x000000000000a8b4        0x2 /cygdrive/c/Users/huangli/AppData/Local/Temp/concurrent_sampleLight_b92.elf.60zuQo.ltrans2.ltrans.o
                0x000000000000a8b4                s_flash_preempt_config
 *fill*         0x000000000000a8b6        0x2 
 .sdata.softTimer
                0x000000000000a8b8        0x8 /cygdrive/c/Users/huangli/AppData/Local/Temp/concurrent_sampleLight_b92.elf.60zuQo.ltrans2.ltrans.o
 .sdata.tick_rc24mCal
                0x000000000000a8c0        0x4 /cygdrive/c/Users/huangli/AppData/Local/Temp/concurrent_sampleLight_b92.elf.60zuQo.ltrans2.ltrans.o
 .sdata.TXADDR  0x000000000000a8c4        0x4 /cygdrive/c/Users/huangli/AppData/Local/Temp/concurrent_sampleLight_b92.elf.60zuQo.ltrans3.ltrans.o
 .sdata.adc_rx_dma_config
                0x000000000000a8c8        0x4 /cygdrive/c/Users/huangli/AppData/Local/Temp/concurrent_sampleLight_b92.elf.60zuQo.ltrans3.ltrans.o
 .sdata.g_adc_gpio_calib_vref
                0x000000000000a8cc        0x2 /cygdrive/c/Users/huangli/AppData/Local/Temp/concurrent_sampleLight_b92.elf.60zuQo.ltrans3.ltrans.o
                0x000000000000a8cc                g_adc_gpio_calib_vref
 *fill*         0x000000000000a8ce        0x2 
 .sdata.chan.1  0x000000000000a8d0        0x4 /cygdrive/c/Users/huangli/AppData/Local/Temp/concurrent_sampleLight_b92.elf.60zuQo.ltrans4.ltrans.o
 .sdata.edChan.0
                0x000000000000a8d4        0x4 /cygdrive/c/Users/huangli/AppData/Local/Temp/concurrent_sampleLight_b92.elf.60zuQo.ltrans4.ltrans.o
 .sdata.g_brcTransJitter
                0x000000000000a8d8        0x4 /cygdrive/c/Users/huangli/AppData/Local/Temp/concurrent_sampleLight_b92.elf.60zuQo.ltrans4.ltrans.o
 .sdata.APS_BINDING_TABLE_SIZE_V1
                0x000000000000a8dc        0x1 /cygdrive/c/Users/huangli/AppData/Local/Temp/concurrent_sampleLight_b92.elf.60zuQo.ltrans5.ltrans.o
 *fill*         0x000000000000a8dd        0x1 
 .sdata.unknowEndDevAddr.0
                0x000000000000a8de        0x2 /cygdrive/c/Users/huangli/AppData/Local/Temp/concurrent_sampleLight_b92.elf.60zuQo.ltrans5.ltrans.o
 .sdata.g_halMaxDutyCycleCount
                0x000000000000a8e0        0x2 /cygdrive/c/Users/huangli/AppData/Local/Temp/concurrent_sampleLight_b92.elf.60zuQo.ltrans6.ltrans.o
 *fill*         0x000000000000a8e2        0x2 
 .sdata.pdt     0x000000000000a8e4        0x2 /cygdrive/c/Users/huangli/AppData/Local/Temp/concurrent_sampleLight_b92.elf.60zuQo.ltrans6.ltrans.o
 *(.sdata2 .sdata2.* .gnu.linkonce.s.*)
                0x000000000000a8e6                PROVIDE (_DATA_VMA_END = .)
                0x000000000000a208                PROVIDE (_DATA_VMA_START = ADDR (.data))
                0x0000000020199958                PROVIDE (_DATA_LMA_START = LOADADDR (.data))
                0x000000000000a8e8                . = ALIGN (0x8)
                0x000000000000a8e8                PROVIDE (_BSS_VMA_START = .)

.sbss           0x000000000000a8e8      0x358 load address 0x000000002019a038
 *(.dynsbss)
 *(.sbss .sbss.* .gnu.linkonce.sb.*)
 .sbss.T_evtExcept
                0x000000000000a8e8        0x8 /cygdrive/c/Users/huangli/AppData/Local/Temp/concurrent_sampleLight_b92.elf.60zuQo.ltrans0.ltrans.o
                0x000000000000a8e8                T_evtExcept
 .sbss.aps_group_entry_num.lto_priv.0
                0x000000000000a8f0        0x1 /cygdrive/c/Users/huangli/AppData/Local/Temp/concurrent_sampleLight_b92.elf.60zuQo.ltrans0.ltrans.o
                0x000000000000a8f0                aps_group_entry_num.lto_priv.0
 .sbss.available_active_ep_num.lto_priv.0
                0x000000000000a8f1        0x1 /cygdrive/c/Users/huangli/AppData/Local/Temp/concurrent_sampleLight_b92.elf.60zuQo.ltrans0.ltrans.o
                0x000000000000a8f1                available_active_ep_num.lto_priv.0
 *fill*         0x000000000000a8f2        0x2 
 .sbss.g_sysExceptCallback
                0x000000000000a8f4        0x4 /cygdrive/c/Users/huangli/AppData/Local/Temp/concurrent_sampleLight_b92.elf.60zuQo.ltrans0.ltrans.o
                0x000000000000a8f4                g_sysExceptCallback
 .sbss.g_zb_txPowerSet
                0x000000000000a8f8        0x1 /cygdrive/c/Users/huangli/AppData/Local/Temp/concurrent_sampleLight_b92.elf.60zuQo.ltrans0.ltrans.o
                0x000000000000a8f8                g_zb_txPowerSet
 *fill*         0x000000000000a8f9        0x3 
 .sbss.g_zllCommission
                0x000000000000a8fc        0x4 /cygdrive/c/Users/huangli/AppData/Local/Temp/concurrent_sampleLight_b92.elf.60zuQo.ltrans0.ltrans.o
                0x000000000000a8fc                g_zllCommission
 .sbss.reportAttrTimerEvt
                0x000000000000a900        0x4 /cygdrive/c/Users/huangli/AppData/Local/Temp/concurrent_sampleLight_b92.elf.60zuQo.ltrans0.ltrans.o
                0x000000000000a900                reportAttrTimerEvt
 .sbss.rfMode   0x000000000000a904        0x1 /cygdrive/c/Users/huangli/AppData/Local/Temp/concurrent_sampleLight_b92.elf.60zuQo.ltrans0.ltrans.o
                0x000000000000a904                rfMode
 .sbss.rf_busyFlag
                0x000000000000a905        0x1 /cygdrive/c/Users/huangli/AppData/Local/Temp/concurrent_sampleLight_b92.elf.60zuQo.ltrans0.ltrans.o
                0x000000000000a905                rf_busyFlag
 *fill*         0x000000000000a906        0x2 
 .sbss.rf_rxBuf
                0x000000000000a908        0x4 /cygdrive/c/Users/huangli/AppData/Local/Temp/concurrent_sampleLight_b92.elf.60zuQo.ltrans0.ltrans.o
                0x000000000000a908                rf_rxBuf
 .sbss.s_rf_trxstate.lto_priv.0
                0x000000000000a90c        0x4 /cygdrive/c/Users/huangli/AppData/Local/Temp/concurrent_sampleLight_b92.elf.60zuQo.ltrans0.ltrans.o
                0x000000000000a90c                s_rf_trxstate.lto_priv.0
 .sbss.scanReqProfileInterop
                0x000000000000a910        0x1 /cygdrive/c/Users/huangli/AppData/Local/Temp/concurrent_sampleLight_b92.elf.60zuQo.ltrans0.ltrans.o
 *fill*         0x000000000000a911        0x3 
 .sbss.sum_rssi
                0x000000000000a914        0x4 /cygdrive/c/Users/huangli/AppData/Local/Temp/concurrent_sampleLight_b92.elf.60zuQo.ltrans0.ltrans.o
                0x000000000000a914                sum_rssi
 .sbss.sysTimerPerUs
                0x000000000000a918        0x4 /cygdrive/c/Users/huangli/AppData/Local/Temp/concurrent_sampleLight_b92.elf.60zuQo.ltrans0.ltrans.o
                0x000000000000a918                sysTimerPerUs
 .sbss.g_zcl_sceneAttrs
                0x000000000000a91c        0x6 /cygdrive/c/Users/huangli/AppData/Local/Temp/concurrent_sampleLight_b92.elf.60zuQo.ltrans1.ltrans.o
                0x000000000000a91c                g_zcl_sceneAttrs
 *fill*         0x000000000000a922        0x2 
 .sbss.g_zcl_groupAttrs
                0x000000000000a924        0x1 /cygdrive/c/Users/huangli/AppData/Local/Temp/concurrent_sampleLight_b92.elf.60zuQo.ltrans1.ltrans.o
 *fill*         0x000000000000a925        0x3 
 .sbss.g_zcl_identifyAttrs
                0x000000000000a928        0x2 /cygdrive/c/Users/huangli/AppData/Local/Temp/concurrent_sampleLight_b92.elf.60zuQo.ltrans1.ltrans.o
                0x000000000000a928                g_zcl_identifyAttrs
 *fill*         0x000000000000a92a        0x2 
 .sbss.my_OtaDataCCC
                0x000000000000a92c        0x2 /cygdrive/c/Users/huangli/AppData/Local/Temp/concurrent_sampleLight_b92.elf.60zuQo.ltrans1.ltrans.o
 .sbss.my_OtaData
                0x000000000000a92e        0x1 /cygdrive/c/Users/huangli/AppData/Local/Temp/concurrent_sampleLight_b92.elf.60zuQo.ltrans1.ltrans.o
 *fill*         0x000000000000a92f        0x1 
 .sbss.SppDataClient2ServerData
                0x000000000000a930        0x1 /cygdrive/c/Users/huangli/AppData/Local/Temp/concurrent_sampleLight_b92.elf.60zuQo.ltrans1.ltrans.o
 *fill*         0x000000000000a931        0x3 
 .sbss.SppDataServer2ClientDataCCC
                0x000000000000a934        0x2 /cygdrive/c/Users/huangli/AppData/Local/Temp/concurrent_sampleLight_b92.elf.60zuQo.ltrans1.ltrans.o
 *fill*         0x000000000000a936        0x2 
 .sbss.SppDataServer2ClientData
                0x000000000000a938        0x1 /cygdrive/c/Users/huangli/AppData/Local/Temp/concurrent_sampleLight_b92.elf.60zuQo.ltrans1.ltrans.o
 *fill*         0x000000000000a939        0x3 
 .sbss.batteryValueInCCC
                0x000000000000a93c        0x2 /cygdrive/c/Users/huangli/AppData/Local/Temp/concurrent_sampleLight_b92.elf.60zuQo.ltrans1.ltrans.o
 *fill*         0x000000000000a93e        0x2 
 .sbss.serviceChangeCCC
                0x000000000000a940        0x2 /cygdrive/c/Users/huangli/AppData/Local/Temp/concurrent_sampleLight_b92.elf.60zuQo.ltrans1.ltrans.o
 *fill*         0x000000000000a942        0x2 
 .sbss.serviceChangeVal
                0x000000000000a944        0x4 /cygdrive/c/Users/huangli/AppData/Local/Temp/concurrent_sampleLight_b92.elf.60zuQo.ltrans1.ltrans.o
 .sbss.scan_priRxFifo
                0x000000000000a948        0x8 /cygdrive/c/Users/huangli/AppData/Local/Temp/concurrent_sampleLight_b92.elf.60zuQo.ltrans1.ltrans.o
                0x000000000000a948                scan_priRxFifo
 .sbss.ll_prichn_scan_irq_task_cb
                0x000000000000a950        0x4 /cygdrive/c/Users/huangli/AppData/Local/Temp/concurrent_sampleLight_b92.elf.60zuQo.ltrans1.ltrans.o
                0x000000000000a950                ll_prichn_scan_irq_task_cb
 .sbss.ll_irq_scan_rx_pri_chn_cb
                0x000000000000a954        0x4 /cygdrive/c/Users/huangli/AppData/Local/Temp/concurrent_sampleLight_b92.elf.60zuQo.ltrans1.ltrans.o
                0x000000000000a954                ll_irq_scan_rx_pri_chn_cb
 .sbss.ll_leg_scan_mlp_task_cb
                0x000000000000a958        0x4 /cygdrive/c/Users/huangli/AppData/Local/Temp/concurrent_sampleLight_b92.elf.60zuQo.ltrans1.ltrans.o
                0x000000000000a958                ll_leg_scan_mlp_task_cb
 .sbss.T_BLE_connect
                0x000000000000a95c        0x1 /cygdrive/c/Users/huangli/AppData/Local/Temp/concurrent_sampleLight_b92.elf.60zuQo.ltrans1.ltrans.o
 *fill*         0x000000000000a95d        0x3 
 .sbss.T_rfStatusCnt
                0x000000000000a960        0x4 /cygdrive/c/Users/huangli/AppData/Local/Temp/concurrent_sampleLight_b92.elf.60zuQo.ltrans1.ltrans.o
                0x000000000000a960                T_rfStatusCnt
 .sbss.acl_conn_central_num
                0x000000000000a964        0x1 /cygdrive/c/Users/huangli/AppData/Local/Temp/concurrent_sampleLight_b92.elf.60zuQo.ltrans1.ltrans.o
 .sbss.acl_conn_periphr_num
                0x000000000000a965        0x1 /cygdrive/c/Users/huangli/AppData/Local/Temp/concurrent_sampleLight_b92.elf.60zuQo.ltrans1.ltrans.o
 *fill*         0x000000000000a966        0x2 
 .sbss.adc_dma_chn
                0x000000000000a968        0x4 /cygdrive/c/Users/huangli/AppData/Local/Temp/concurrent_sampleLight_b92.elf.60zuQo.ltrans1.ltrans.o
                0x000000000000a968                adc_dma_chn
 .sbss.aps_counter_value.lto_priv.0
                0x000000000000a96c        0x1 /cygdrive/c/Users/huangli/AppData/Local/Temp/concurrent_sampleLight_b92.elf.60zuQo.ltrans1.ltrans.o
                0x000000000000a96c                aps_counter_value.lto_priv.0
 .sbss.aps_handle.lto_priv.0
                0x000000000000a96d        0x1 /cygdrive/c/Users/huangli/AppData/Local/Temp/concurrent_sampleLight_b92.elf.60zuQo.ltrans1.ltrans.o
                0x000000000000a96d                aps_handle.lto_priv.0
 *fill*         0x000000000000a96e        0x2 
 .sbss.blc_gap_event_handler
                0x000000000000a970        0x4 /cygdrive/c/Users/huangli/AppData/Local/Temp/concurrent_sampleLight_b92.elf.60zuQo.ltrans1.ltrans.o
                0x000000000000a970                blc_gap_event_handler
 .sbss.blc_hci_data_handler
                0x000000000000a974        0x4 /cygdrive/c/Users/huangli/AppData/Local/Temp/concurrent_sampleLight_b92.elf.60zuQo.ltrans1.ltrans.o
                0x000000000000a974                blc_hci_data_handler
 .sbss.blc_hci_event_handler
                0x000000000000a978        0x4 /cygdrive/c/Users/huangli/AppData/Local/Temp/concurrent_sampleLight_b92.elf.60zuQo.ltrans1.ltrans.o
                0x000000000000a978                blc_hci_event_handler
 .sbss.blt_llms_ltk_request
                0x000000000000a97c        0x4 /cygdrive/c/Users/huangli/AppData/Local/Temp/concurrent_sampleLight_b92.elf.60zuQo.ltrans1.ltrans.o
                0x000000000000a97c                blt_llms_ltk_request
 .sbss.blt_p_event_callback
                0x000000000000a980        0x4 /cygdrive/c/Users/huangli/AppData/Local/Temp/concurrent_sampleLight_b92.elf.60zuQo.ltrans1.ltrans.o
                0x000000000000a980                blt_p_event_callback
 .sbss.bltempParam
                0x000000000000a984        0x4 /cygdrive/c/Users/huangli/AppData/Local/Temp/concurrent_sampleLight_b92.elf.60zuQo.ltrans1.ltrans.o
                0x000000000000a984                bltempParam
 .sbss.exception_mcause
                0x000000000000a988        0x4 /cygdrive/c/Users/huangli/AppData/Local/Temp/concurrent_sampleLight_b92.elf.60zuQo.ltrans1.ltrans.o
 .sbss.exception_mdcause
                0x000000000000a98c        0x4 /cygdrive/c/Users/huangli/AppData/Local/Temp/concurrent_sampleLight_b92.elf.60zuQo.ltrans1.ltrans.o
 .sbss.exception_mepc
                0x000000000000a990        0x4 /cygdrive/c/Users/huangli/AppData/Local/Temp/concurrent_sampleLight_b92.elf.60zuQo.ltrans1.ltrans.o
 .sbss.exception_mstatus
                0x000000000000a994        0x4 /cygdrive/c/Users/huangli/AppData/Local/Temp/concurrent_sampleLight_b92.elf.60zuQo.ltrans1.ltrans.o
 .sbss.exception_mtval
                0x000000000000a998        0x4 /cygdrive/c/Users/huangli/AppData/Local/Temp/concurrent_sampleLight_b92.elf.60zuQo.ltrans1.ltrans.o
 .sbss.factoryRst_exist
                0x000000000000a99c        0x1 /cygdrive/c/Users/huangli/AppData/Local/Temp/concurrent_sampleLight_b92.elf.60zuQo.ltrans1.ltrans.o
 .sbss.factoryRst_powerCnt
                0x000000000000a99d        0x1 /cygdrive/c/Users/huangli/AppData/Local/Temp/concurrent_sampleLight_b92.elf.60zuQo.ltrans1.ltrans.o
                0x000000000000a99d                factoryRst_powerCnt
 *fill*         0x000000000000a99e        0x2 
 .sbss.factoryRst_timerEvt
                0x000000000000a9a0        0x4 /cygdrive/c/Users/huangli/AppData/Local/Temp/concurrent_sampleLight_b92.elf.60zuQo.ltrans1.ltrans.o
                0x000000000000a9a0                factoryRst_timerEvt
 .sbss.func_smp_init
                0x000000000000a9a4        0x4 /cygdrive/c/Users/huangli/AppData/Local/Temp/concurrent_sampleLight_b92.elf.60zuQo.ltrans1.ltrans.o
                0x000000000000a9a4                func_smp_init
 .sbss.gAttributes
                0x000000000000a9a8        0x4 /cygdrive/c/Users/huangli/AppData/Local/Temp/concurrent_sampleLight_b92.elf.60zuQo.ltrans1.ltrans.o
                0x000000000000a9a8                gAttributes
 .sbss.g_adc_pre_scale
                0x000000000000a9ac        0x1 /cygdrive/c/Users/huangli/AppData/Local/Temp/concurrent_sampleLight_b92.elf.60zuQo.ltrans1.ltrans.o
                0x000000000000a9ac                g_adc_pre_scale
 .sbss.g_adc_vbat_divider
                0x000000000000a9ad        0x1 /cygdrive/c/Users/huangli/AppData/Local/Temp/concurrent_sampleLight_b92.elf.60zuQo.ltrans1.ltrans.o
                0x000000000000a9ad                g_adc_vbat_divider
 .sbss.g_adc_vref_offset
                0x000000000000a9ae        0x1 /cygdrive/c/Users/huangli/AppData/Local/Temp/concurrent_sampleLight_b92.elf.60zuQo.ltrans1.ltrans.o
                0x000000000000a9ae                g_adc_vref_offset
 .sbss.g_ble_txPowerSet
                0x000000000000a9af        0x1 /cygdrive/c/Users/huangli/AppData/Local/Temp/concurrent_sampleLight_b92.elf.60zuQo.ltrans1.ltrans.o
                0x000000000000a9af                g_ble_txPowerSet
 .sbss.g_nvItemLengthCheckNum
                0x000000000000a9b0        0x1 /cygdrive/c/Users/huangli/AppData/Local/Temp/concurrent_sampleLight_b92.elf.60zuQo.ltrans1.ltrans.o
 *fill*         0x000000000000a9b1        0x3 
 .sbss.g_pTxQueue
                0x000000000000a9b4        0x4 /cygdrive/c/Users/huangli/AppData/Local/Temp/concurrent_sampleLight_b92.elf.60zuQo.ltrans1.ltrans.o
                0x000000000000a9b4                g_pTxQueue
 .sbss.g_plic_preempt_en
                0x000000000000a9b8        0x1 /cygdrive/c/Users/huangli/AppData/Local/Temp/concurrent_sampleLight_b92.elf.60zuQo.ltrans1.ltrans.o
                0x000000000000a9b8                g_plic_preempt_en
 .sbss.g_pm_reboot_event
                0x000000000000a9b9        0x1 /cygdrive/c/Users/huangli/AppData/Local/Temp/concurrent_sampleLight_b92.elf.60zuQo.ltrans1.ltrans.o
 *fill*         0x000000000000a9ba        0x2 
 .sbss.g_pm_status_info
                0x000000000000a9bc        0x4 /cygdrive/c/Users/huangli/AppData/Local/Temp/concurrent_sampleLight_b92.elf.60zuQo.ltrans1.ltrans.o
 .sbss.g_rnd_m_w
                0x000000000000a9c0        0x4 /cygdrive/c/Users/huangli/AppData/Local/Temp/concurrent_sampleLight_b92.elf.60zuQo.ltrans1.ltrans.o
                0x000000000000a9c0                g_rnd_m_w
 .sbss.g_rnd_m_z
                0x000000000000a9c4        0x4 /cygdrive/c/Users/huangli/AppData/Local/Temp/concurrent_sampleLight_b92.elf.60zuQo.ltrans1.ltrans.o
                0x000000000000a9c4                g_rnd_m_z
 .sbss.g_vbus_timer_turn_off_flag
                0x000000000000a9c8        0x1 /cygdrive/c/Users/huangli/AppData/Local/Temp/concurrent_sampleLight_b92.elf.60zuQo.ltrans1.ltrans.o
 *fill*         0x000000000000a9c9        0x3 
 .sbss.g_vbus_timer_turn_off_start_tick
                0x000000000000a9cc        0x4 /cygdrive/c/Users/huangli/AppData/Local/Temp/concurrent_sampleLight_b92.elf.60zuQo.ltrans1.ltrans.o
 .sbss.gatt_data_handler
                0x000000000000a9d0        0x4 /cygdrive/c/Users/huangli/AppData/Local/Temp/concurrent_sampleLight_b92.elf.60zuQo.ltrans1.ltrans.o
                0x000000000000a9d0                gatt_data_handler
 .sbss.gpAppCb  0x000000000000a9d4        0x4 /cygdrive/c/Users/huangli/AppData/Local/Temp/concurrent_sampleLight_b92.elf.60zuQo.ltrans1.ltrans.o
 .sbss.gpStubCb
                0x000000000000a9d8        0x4 /cygdrive/c/Users/huangli/AppData/Local/Temp/concurrent_sampleLight_b92.elf.60zuQo.ltrans1.ltrans.o
                0x000000000000a9d8                gpStubCb
 .sbss.gpTxQueue
                0x000000000000a9dc        0x8 /cygdrive/c/Users/huangli/AppData/Local/Temp/concurrent_sampleLight_b92.elf.60zuQo.ltrans1.ltrans.o
                0x000000000000a9dc                gpTxQueue
 .sbss.gpioIrqHandlerQ_list
                0x000000000000a9e4        0x4 /cygdrive/c/Users/huangli/AppData/Local/Temp/concurrent_sampleLight_b92.elf.60zuQo.ltrans1.ltrans.o
 .sbss.isInitExecuted.0.lto_priv.1
                0x000000000000a9e8        0x1 /cygdrive/c/Users/huangli/AppData/Local/Temp/concurrent_sampleLight_b92.elf.60zuQo.ltrans1.ltrans.o
                0x000000000000a9e8                isInitExecuted.0.lto_priv.1
 *fill*         0x000000000000a9e9        0x3 
 .sbss.ll_acl_conn_irq_task_cb
                0x000000000000a9ec        0x4 /cygdrive/c/Users/huangli/AppData/Local/Temp/concurrent_sampleLight_b92.elf.60zuQo.ltrans1.ltrans.o
                0x000000000000a9ec                ll_acl_conn_irq_task_cb
 .sbss.ll_acl_conn_mlp_task_cb
                0x000000000000a9f0        0x4 /cygdrive/c/Users/huangli/AppData/Local/Temp/concurrent_sampleLight_b92.elf.60zuQo.ltrans1.ltrans.o
                0x000000000000a9f0                ll_acl_conn_mlp_task_cb
 .sbss.ll_init_mlp_task_cb
                0x000000000000a9f4        0x4 /cygdrive/c/Users/huangli/AppData/Local/Temp/concurrent_sampleLight_b92.elf.60zuQo.ltrans1.ltrans.o
                0x000000000000a9f4                ll_init_mlp_task_cb
 .sbss.ll_leg_adv_irq_task_cb
                0x000000000000a9f8        0x4 /cygdrive/c/Users/huangli/AppData/Local/Temp/concurrent_sampleLight_b92.elf.60zuQo.ltrans1.ltrans.o
                0x000000000000a9f8                ll_leg_adv_irq_task_cb
 .sbss.ll_leg_adv_mlp_task_cb
                0x000000000000a9fc        0x4 /cygdrive/c/Users/huangli/AppData/Local/Temp/concurrent_sampleLight_b92.elf.60zuQo.ltrans1.ltrans.o
                0x000000000000a9fc                ll_leg_adv_mlp_task_cb
 .sbss.ll_prichn_initPkt_cb
                0x000000000000aa00        0x4 /cygdrive/c/Users/huangli/AppData/Local/Temp/concurrent_sampleLight_b92.elf.60zuQo.ltrans1.ltrans.o
                0x000000000000aa00                ll_prichn_initPkt_cb
 .sbss.ll_push_tx_fifo_handler
                0x000000000000aa04        0x4 /cygdrive/c/Users/huangli/AppData/Local/Temp/concurrent_sampleLight_b92.elf.60zuQo.ltrans1.ltrans.o
                0x000000000000aa04                ll_push_tx_fifo_handler
 .sbss.matterCommission
                0x000000000000aa08        0x8 /cygdrive/c/Users/huangli/AppData/Local/Temp/concurrent_sampleLight_b92.elf.60zuQo.ltrans1.ltrans.o
                0x000000000000aa08                matterCommission
 .sbss.sampleLightAttrsStoreTimerEvt
                0x000000000000aa10        0x4 /cygdrive/c/Users/huangli/AppData/Local/Temp/concurrent_sampleLight_b92.elf.60zuQo.ltrans1.ltrans.o
 .sbss.size_0_pool
                0x000000000000aa14        0x4 /cygdrive/c/Users/huangli/AppData/Local/Temp/concurrent_sampleLight_b92.elf.60zuQo.ltrans1.ltrans.o
 .sbss.size_1_pool
                0x000000000000aa18        0x4 /cygdrive/c/Users/huangli/AppData/Local/Temp/concurrent_sampleLight_b92.elf.60zuQo.ltrans1.ltrans.o
 .sbss.size_2_pool
                0x000000000000aa1c        0x4 /cygdrive/c/Users/huangli/AppData/Local/Temp/concurrent_sampleLight_b92.elf.60zuQo.ltrans1.ltrans.o
 .sbss.size_3_pool
                0x000000000000aa20        0x4 /cygdrive/c/Users/huangli/AppData/Local/Temp/concurrent_sampleLight_b92.elf.60zuQo.ltrans1.ltrans.o
 .sbss.tid.0    0x000000000000aa24        0x1 /cygdrive/c/Users/huangli/AppData/Local/Temp/concurrent_sampleLight_b92.elf.60zuQo.ltrans1.ltrans.o
 *fill*         0x000000000000aa25        0x3 
 .sbss.timerIdentifyCnt.0
                0x000000000000aa28        0x4 /cygdrive/c/Users/huangli/AppData/Local/Temp/concurrent_sampleLight_b92.elf.60zuQo.ltrans1.ltrans.o
 .sbss.tlk_flash_mid
                0x000000000000aa2c        0x4 /cygdrive/c/Users/huangli/AppData/Local/Temp/concurrent_sampleLight_b92.elf.60zuQo.ltrans1.ltrans.o
 .sbss.uartDrvTxBuf
                0x000000000000aa30        0x4 /cygdrive/c/Users/huangli/AppData/Local/Temp/concurrent_sampleLight_b92.elf.60zuQo.ltrans1.ltrans.o
 .sbss.uart_dma_rev_size
                0x000000000000aa34        0x8 /cygdrive/c/Users/huangli/AppData/Local/Temp/concurrent_sampleLight_b92.elf.60zuQo.ltrans1.ltrans.o
 .sbss.utcRemainingMs
                0x000000000000aa3c        0x4 /cygdrive/c/Users/huangli/AppData/Local/Temp/concurrent_sampleLight_b92.elf.60zuQo.ltrans1.ltrans.o
 .sbss.utcSeconds
                0x000000000000aa40        0x4 /cygdrive/c/Users/huangli/AppData/Local/Temp/concurrent_sampleLight_b92.elf.60zuQo.ltrans1.ltrans.o
 .sbss.zclGpAttr_gpSharedSecKeyType
                0x000000000000aa44        0x1 /cygdrive/c/Users/huangli/AppData/Local/Temp/concurrent_sampleLight_b92.elf.60zuQo.ltrans1.ltrans.o
 *fill*         0x000000000000aa45        0x3 
 .sbss.zclGpAttr_gppActiveFunc
                0x000000000000aa48        0x3 /cygdrive/c/Users/huangli/AppData/Local/Temp/concurrent_sampleLight_b92.elf.60zuQo.ltrans1.ltrans.o
 *fill*         0x000000000000aa4b        0x1 
 .sbss.zclGpAttr_gppFunc
                0x000000000000aa4c        0x3 /cygdrive/c/Users/huangli/AppData/Local/Temp/concurrent_sampleLight_b92.elf.60zuQo.ltrans1.ltrans.o
 .sbss.zcl_seqNum
                0x000000000000aa4f        0x1 /cygdrive/c/Users/huangli/AppData/Local/Temp/concurrent_sampleLight_b92.elf.60zuQo.ltrans1.ltrans.o
                0x000000000000aa4f                zcl_seqNum
 .sbss.zdoAppIndCbLst
                0x000000000000aa50        0x4 /cygdrive/c/Users/huangli/AppData/Local/Temp/concurrent_sampleLight_b92.elf.60zuQo.ltrans1.ltrans.o
                0x000000000000aa50                zdoAppIndCbLst
 .sbss.zdoTouchLinkCb
                0x000000000000aa54        0x4 /cygdrive/c/Users/huangli/AppData/Local/Temp/concurrent_sampleLight_b92.elf.60zuQo.ltrans1.ltrans.o
                0x000000000000aa54                zdoTouchLinkCb
 .sbss.LL_FEATURE_MASK_1
                0x000000000000aa58        0x4 /cygdrive/c/Users/huangli/AppData/Local/Temp/concurrent_sampleLight_b92.elf.60zuQo.ltrans2.ltrans.o
 .sbss.T_currentState
                0x000000000000aa5c        0x1 /cygdrive/c/Users/huangli/AppData/Local/Temp/concurrent_sampleLight_b92.elf.60zuQo.ltrans2.ltrans.o
 *fill*         0x000000000000aa5d        0x3 
 .sbss.aes_enc_dec_busy
                0x000000000000aa60        0x4 /cygdrive/c/Users/huangli/AppData/Local/Temp/concurrent_sampleLight_b92.elf.60zuQo.ltrans2.ltrans.o
                0x000000000000aa60                aes_enc_dec_busy
 .sbss.bSlot_winOffsetStart
                0x000000000000aa64        0x4 /cygdrive/c/Users/huangli/AppData/Local/Temp/concurrent_sampleLight_b92.elf.60zuQo.ltrans2.ltrans.o
                0x000000000000aa64                bSlot_winOffsetStart
 .sbss.blc_rcvd_connReq_tick
                0x000000000000aa68        0x4 /cygdrive/c/Users/huangli/AppData/Local/Temp/concurrent_sampleLight_b92.elf.60zuQo.ltrans2.ltrans.o
                0x000000000000aa68                blc_rcvd_connReq_tick
 .sbss.ble_curr_rx_dma_buff
                0x000000000000aa6c        0x4 /cygdrive/c/Users/huangli/AppData/Local/Temp/concurrent_sampleLight_b92.elf.60zuQo.ltrans2.ltrans.o
                0x000000000000aa6c                ble_curr_rx_dma_buff
 .sbss.blm_btxbrx_state
                0x000000000000aa70        0x4 /cygdrive/c/Users/huangli/AppData/Local/Temp/concurrent_sampleLight_b92.elf.60zuQo.ltrans2.ltrans.o
                0x000000000000aa70                blm_btxbrx_state
 .sbss.blms_conn_sel
                0x000000000000aa74        0x4 /cygdrive/c/Users/huangli/AppData/Local/Temp/concurrent_sampleLight_b92.elf.60zuQo.ltrans2.ltrans.o
                0x000000000000aa74                blms_conn_sel
 .sbss.blms_p_own
                0x000000000000aa78        0x4 /cygdrive/c/Users/huangli/AppData/Local/Temp/concurrent_sampleLight_b92.elf.60zuQo.ltrans2.ltrans.o
                0x000000000000aa78                blms_p_own
 .sbss.blms_p_peer
                0x000000000000aa7c        0x4 /cygdrive/c/Users/huangli/AppData/Local/Temp/concurrent_sampleLight_b92.elf.60zuQo.ltrans2.ltrans.o
                0x000000000000aa7c                blms_p_peer
 .sbss.blms_p_prop
                0x000000000000aa80        0x4 /cygdrive/c/Users/huangli/AppData/Local/Temp/concurrent_sampleLight_b92.elf.60zuQo.ltrans2.ltrans.o
                0x000000000000aa80                blms_p_prop
 .sbss.blms_p_sts
                0x000000000000aa84        0x4 /cygdrive/c/Users/huangli/AppData/Local/Temp/concurrent_sampleLight_b92.elf.60zuQo.ltrans2.ltrans.o
                0x000000000000aa84                blms_p_sts
 .sbss.blms_pconn
                0x000000000000aa88        0x4 /cygdrive/c/Users/huangli/AppData/Local/Temp/concurrent_sampleLight_b92.elf.60zuQo.ltrans2.ltrans.o
                0x000000000000aa88                blms_pconn
 *fill*         0x000000000000aa8c        0x4 
 .sbss.blms_state
                0x000000000000aa90        0x8 /cygdrive/c/Users/huangli/AppData/Local/Temp/concurrent_sampleLight_b92.elf.60zuQo.ltrans2.ltrans.o
                0x000000000000aa90                blms_state
 .sbss.bls_conn_sel
                0x000000000000aa98        0x4 /cygdrive/c/Users/huangli/AppData/Local/Temp/concurrent_sampleLight_b92.elf.60zuQo.ltrans2.ltrans.o
                0x000000000000aa98                bls_conn_sel
 .sbss.bls_pconn
                0x000000000000aa9c        0x4 /cygdrive/c/Users/huangli/AppData/Local/Temp/concurrent_sampleLight_b92.elf.60zuQo.ltrans2.ltrans.o
                0x000000000000aa9c                bls_pconn
 .sbss.blt_gap_hci_event_handler
                0x000000000000aaa0        0x4 /cygdrive/c/Users/huangli/AppData/Local/Temp/concurrent_sampleLight_b92.elf.60zuQo.ltrans2.ltrans.o
                0x000000000000aaa0                blt_gap_hci_event_handler
 .sbss.blt_pPrichnScn
                0x000000000000aaa4        0x4 /cygdrive/c/Users/huangli/AppData/Local/Temp/concurrent_sampleLight_b92.elf.60zuQo.ltrans2.ltrans.o
 .sbss.btx_anchor_point
                0x000000000000aaa8        0x4 /cygdrive/c/Users/huangli/AppData/Local/Temp/concurrent_sampleLight_b92.elf.60zuQo.ltrans2.ltrans.o
                0x000000000000aaa8                btx_anchor_point
 .sbss.colorTimerEvt.lto_priv.0
                0x000000000000aaac        0x4 /cygdrive/c/Users/huangli/AppData/Local/Temp/concurrent_sampleLight_b92.elf.60zuQo.ltrans2.ltrans.o
                0x000000000000aaac                colorTimerEvt.lto_priv.0
 .sbss.gGroupSyncFlag.lto_priv.0
                0x000000000000aab0        0x1 /cygdrive/c/Users/huangli/AppData/Local/Temp/concurrent_sampleLight_b92.elf.60zuQo.ltrans2.ltrans.o
                0x000000000000aab0                gGroupSyncFlag.lto_priv.0
 .sbss.g_factory_reset_flag
                0x000000000000aab1        0x1 /cygdrive/c/Users/huangli/AppData/Local/Temp/concurrent_sampleLight_b92.elf.60zuQo.ltrans2.ltrans.o
 .sbss.g_identify_count
                0x000000000000aab2        0x1 /cygdrive/c/Users/huangli/AppData/Local/Temp/concurrent_sampleLight_b92.elf.60zuQo.ltrans2.ltrans.o
 .sbss.g_scene_transtime
                0x000000000000aab3        0x1 /cygdrive/c/Users/huangli/AppData/Local/Temp/concurrent_sampleLight_b92.elf.60zuQo.ltrans2.ltrans.o
 .sbss.g_touchlink_flag
                0x000000000000aab4        0x1 /cygdrive/c/Users/huangli/AppData/Local/Temp/concurrent_sampleLight_b92.elf.60zuQo.ltrans2.ltrans.o
 *fill*         0x000000000000aab5        0x3 
 .sbss.gapAclStateList
                0x000000000000aab8        0x4 /cygdrive/c/Users/huangli/AppData/Local/Temp/concurrent_sampleLight_b92.elf.60zuQo.ltrans2.ltrans.o
                0x000000000000aab8                gapAclStateList
 .sbss.identifyDelayTimerEvt
                0x000000000000aabc        0x4 /cygdrive/c/Users/huangli/AppData/Local/Temp/concurrent_sampleLight_b92.elf.60zuQo.ltrans2.ltrans.o
 .sbss.identifyTimerEvt
                0x000000000000aac0        0x4 /cygdrive/c/Users/huangli/AppData/Local/Temp/concurrent_sampleLight_b92.elf.60zuQo.ltrans2.ltrans.o
 .sbss.ikeaSceneInfo
                0x000000000000aac4        0x8 /cygdrive/c/Users/huangli/AppData/Local/Temp/concurrent_sampleLight_b92.elf.60zuQo.ltrans2.ltrans.o
 .sbss.lastTimer
                0x000000000000aacc        0x4 /cygdrive/c/Users/huangli/AppData/Local/Temp/concurrent_sampleLight_b92.elf.60zuQo.ltrans2.ltrans.o
 .sbss.levelTimerEvt.lto_priv.0
                0x000000000000aad0        0x4 /cygdrive/c/Users/huangli/AppData/Local/Temp/concurrent_sampleLight_b92.elf.60zuQo.ltrans2.ltrans.o
                0x000000000000aad0                levelTimerEvt.lto_priv.0
 .sbss.ll_acl_recentAvgRSSI
                0x000000000000aad4        0x8 /cygdrive/c/Users/huangli/AppData/Local/Temp/concurrent_sampleLight_b92.elf.60zuQo.ltrans2.ltrans.o
 .sbss.ll_acl_slave_irq_task_cb
                0x000000000000aadc        0x4 /cygdrive/c/Users/huangli/AppData/Local/Temp/concurrent_sampleLight_b92.elf.60zuQo.ltrans2.ltrans.o
                0x000000000000aadc                ll_acl_slave_irq_task_cb
 .sbss.ll_acl_slave_mlp_task_cb
                0x000000000000aae0        0x4 /cygdrive/c/Users/huangli/AppData/Local/Temp/concurrent_sampleLight_b92.elf.60zuQo.ltrans2.ltrans.o
 .sbss.ll_adv_2_slave_cb
                0x000000000000aae4        0x4 /cygdrive/c/Users/huangli/AppData/Local/Temp/concurrent_sampleLight_b92.elf.60zuQo.ltrans2.ltrans.o
                0x000000000000aae4                ll_adv_2_slave_cb
 .sbss.ll_connComplete_handler
                0x000000000000aae8        0x4 /cygdrive/c/Users/huangli/AppData/Local/Temp/concurrent_sampleLight_b92.elf.60zuQo.ltrans2.ltrans.o
                0x000000000000aae8                ll_connComplete_handler
 .sbss.ll_connTerminate_handler
                0x000000000000aaec        0x4 /cygdrive/c/Users/huangli/AppData/Local/Temp/concurrent_sampleLight_b92.elf.60zuQo.ltrans2.ltrans.o
                0x000000000000aaec                ll_connTerminate_handler
 .sbss.ll_encryption_done_cb
                0x000000000000aaf0        0x4 /cygdrive/c/Users/huangli/AppData/Local/Temp/concurrent_sampleLight_b92.elf.60zuQo.ltrans2.ltrans.o
                0x000000000000aaf0                ll_encryption_done_cb
 .sbss.ll_encryption_pause_cb
                0x000000000000aaf4        0x4 /cygdrive/c/Users/huangli/AppData/Local/Temp/concurrent_sampleLight_b92.elf.60zuQo.ltrans2.ltrans.o
                0x000000000000aaf4                ll_encryption_pause_cb
 .sbss.ll_host_main_loop_cb
                0x000000000000aaf8        0x4 /cygdrive/c/Users/huangli/AppData/Local/Temp/concurrent_sampleLight_b92.elf.60zuQo.ltrans2.ltrans.o
 .sbss.mac_scmaFlag
                0x000000000000aafc        0x1 /cygdrive/c/Users/huangli/AppData/Local/Temp/concurrent_sampleLight_b92.elf.60zuQo.ltrans2.ltrans.o
                0x000000000000aafc                mac_scmaFlag
 *fill*         0x000000000000aafd        0x3 
 .sbss.mac_scmaStartTick
                0x000000000000ab00        0x4 /cygdrive/c/Users/huangli/AppData/Local/Temp/concurrent_sampleLight_b92.elf.60zuQo.ltrans2.ltrans.o
                0x000000000000ab00                mac_scmaStartTick
 .sbss.move_scene_count.0
                0x000000000000ab04        0x1 /cygdrive/c/Users/huangli/AppData/Local/Temp/concurrent_sampleLight_b92.elf.60zuQo.ltrans2.ltrans.o
 *fill*         0x000000000000ab05        0x3 
 .sbss.onWithTimedOffTimerEvt
                0x000000000000ab08        0x4 /cygdrive/c/Users/huangli/AppData/Local/Temp/concurrent_sampleLight_b92.elf.60zuQo.ltrans2.ltrans.o
 .sbss.pblms_rxbuff
                0x000000000000ab0c        0x4 /cygdrive/c/Users/huangli/AppData/Local/Temp/concurrent_sampleLight_b92.elf.60zuQo.ltrans2.ltrans.o
 .sbss.pl2cap_buff
                0x000000000000ab10        0x4 /cygdrive/c/Users/huangli/AppData/Local/Temp/concurrent_sampleLight_b92.elf.60zuQo.ltrans2.ltrans.o
 .sbss.smp_bond_device_flash_cfg_idx
                0x000000000000ab14        0x4 /cygdrive/c/Users/huangli/AppData/Local/Temp/concurrent_sampleLight_b92.elf.60zuQo.ltrans2.ltrans.o
                0x000000000000ab14                smp_bond_device_flash_cfg_idx
 .sbss.smp_param_current_start_addr.lto_priv.0
                0x000000000000ab18        0x4 /cygdrive/c/Users/huangli/AppData/Local/Temp/concurrent_sampleLight_b92.elf.60zuQo.ltrans2.ltrans.o
                0x000000000000ab18                smp_param_current_start_addr.lto_priv.0
 *fill*         0x000000000000ab1c        0x4 
 .sbss.systick_irq_trigger
                0x000000000000ab20        0x8 /cygdrive/c/Users/huangli/AppData/Local/Temp/concurrent_sampleLight_b92.elf.60zuQo.ltrans2.ltrans.o
                0x000000000000ab20                systick_irq_trigger
 .sbss.test     0x000000000000ab28        0x1 /cygdrive/c/Users/huangli/AppData/Local/Temp/concurrent_sampleLight_b92.elf.60zuQo.ltrans2.ltrans.o
 *fill*         0x000000000000ab29        0x3 
 .sbss.i_first  0x000000000000ab2c        0x8 /cygdrive/c/Users/huangli/AppData/Local/Temp/concurrent_sampleLight_b92.elf.60zuQo.ltrans3.ltrans.o
 .sbss.q_first  0x000000000000ab34        0x8 /cygdrive/c/Users/huangli/AppData/Local/Temp/concurrent_sampleLight_b92.elf.60zuQo.ltrans3.ltrans.o
 .sbss.q_final  0x000000000000ab3c        0x8 /cygdrive/c/Users/huangli/AppData/Local/Temp/concurrent_sampleLight_b92.elf.60zuQo.ltrans3.ltrans.o
 .sbss.rf_adc_iq
                0x000000000000ab44        0x4 /cygdrive/c/Users/huangli/AppData/Local/Temp/concurrent_sampleLight_b92.elf.60zuQo.ltrans3.ltrans.o
 .sbss.g_rf_dcoc_iq_code
                0x000000000000ab48        0x2 /cygdrive/c/Users/huangli/AppData/Local/Temp/concurrent_sampleLight_b92.elf.60zuQo.ltrans3.ltrans.o
 .sbss.g_single_tong_freqoffset
                0x000000000000ab4a        0x1 /cygdrive/c/Users/huangli/AppData/Local/Temp/concurrent_sampleLight_b92.elf.60zuQo.ltrans3.ltrans.o
 .sbss.pm_retention_register_storage_data0
                0x000000000000ab4b        0x1 /cygdrive/c/Users/huangli/AppData/Local/Temp/concurrent_sampleLight_b92.elf.60zuQo.ltrans3.ltrans.o
 .sbss.pm_retention_register_storage_buff1
                0x000000000000ab4c        0x5 /cygdrive/c/Users/huangli/AppData/Local/Temp/concurrent_sampleLight_b92.elf.60zuQo.ltrans3.ltrans.o
 *fill*         0x000000000000ab51        0x3 
 .sbss.LightEffect.lto_priv.0
                0x000000000000ab54        0x8 /cygdrive/c/Users/huangli/AppData/Local/Temp/concurrent_sampleLight_b92.elf.60zuQo.ltrans3.ltrans.o
                0x000000000000ab54                LightEffect.lto_priv.0
 .sbss.T_DBG_taskQPop_cb
                0x000000000000ab5c        0x4 /cygdrive/c/Users/huangli/AppData/Local/Temp/concurrent_sampleLight_b92.elf.60zuQo.ltrans3.ltrans.o
 .sbss.T_DBG_taskQPop_data
                0x000000000000ab60        0x4 /cygdrive/c/Users/huangli/AppData/Local/Temp/concurrent_sampleLight_b92.elf.60zuQo.ltrans3.ltrans.o
 .sbss.T_DBG_taskQPop_idx
                0x000000000000ab64        0x1 /cygdrive/c/Users/huangli/AppData/Local/Temp/concurrent_sampleLight_b92.elf.60zuQo.ltrans3.ltrans.o
 *fill*         0x000000000000ab65        0x3 
 .sbss.T_DBG_taskQPush_cb
                0x000000000000ab68        0x4 /cygdrive/c/Users/huangli/AppData/Local/Temp/concurrent_sampleLight_b92.elf.60zuQo.ltrans3.ltrans.o
 .sbss.T_DBG_taskQPush_data
                0x000000000000ab6c        0x4 /cygdrive/c/Users/huangli/AppData/Local/Temp/concurrent_sampleLight_b92.elf.60zuQo.ltrans3.ltrans.o
 .sbss.T_DBG_taskQPush_idx
                0x000000000000ab70        0x1 /cygdrive/c/Users/huangli/AppData/Local/Temp/concurrent_sampleLight_b92.elf.60zuQo.ltrans3.ltrans.o
 *fill*         0x000000000000ab71        0x3 
 .sbss.T_exceptTaskPost
                0x000000000000ab74        0x2 /cygdrive/c/Users/huangli/AppData/Local/Temp/concurrent_sampleLight_b92.elf.60zuQo.ltrans3.ltrans.o
                0x000000000000ab74                T_exceptTaskPost
 *fill*         0x000000000000ab76        0x2 
 .sbss.assocRspTimeoutEvt
                0x000000000000ab78        0x4 /cygdrive/c/Users/huangli/AppData/Local/Temp/concurrent_sampleLight_b92.elf.60zuQo.ltrans3.ltrans.o
 .sbss.associationReqOrigBuffer
                0x000000000000ab7c        0x4 /cygdrive/c/Users/huangli/AppData/Local/Temp/concurrent_sampleLight_b92.elf.60zuQo.ltrans3.ltrans.o
 .sbss.audio_powered_flag
                0x000000000000ab80        0x1 /cygdrive/c/Users/huangli/AppData/Local/Temp/concurrent_sampleLight_b92.elf.60zuQo.ltrans3.ltrans.o
 .sbss.change_flag.0
                0x000000000000ab81        0x1 /cygdrive/c/Users/huangli/AppData/Local/Temp/concurrent_sampleLight_b92.elf.60zuQo.ltrans3.ltrans.o
 *fill*         0x000000000000ab82        0x2 
 .sbss.fImax.0  0x000000000000ab84        0x4 /cygdrive/c/Users/huangli/AppData/Local/Temp/concurrent_sampleLight_b92.elf.60zuQo.ltrans3.ltrans.o
 .sbss.gStateListIndex.lto_priv.0
                0x000000000000ab88        0x1 /cygdrive/c/Users/huangli/AppData/Local/Temp/concurrent_sampleLight_b92.elf.60zuQo.ltrans3.ltrans.o
                0x000000000000ab88                gStateListIndex.lto_priv.0
 .sbss.gSystemRestart
                0x000000000000ab89        0x1 /cygdrive/c/Users/huangli/AppData/Local/Temp/concurrent_sampleLight_b92.elf.60zuQo.ltrans3.ltrans.o
 .sbss.g_adc_gpio_calib_vref_offset
                0x000000000000ab8a        0x1 /cygdrive/c/Users/huangli/AppData/Local/Temp/concurrent_sampleLight_b92.elf.60zuQo.ltrans3.ltrans.o
                0x000000000000ab8a                g_adc_gpio_calib_vref_offset
 .sbss.g_trf_delay_flag
                0x000000000000ab8b        0x1 /cygdrive/c/Users/huangli/AppData/Local/Temp/concurrent_sampleLight_b92.elf.60zuQo.ltrans3.ltrans.o
 .sbss.lds_driver_type.lto_priv.0
                0x000000000000ab8c        0x1 /cygdrive/c/Users/huangli/AppData/Local/Temp/concurrent_sampleLight_b92.elf.60zuQo.ltrans3.ltrans.o
                0x000000000000ab8c                lds_driver_type.lto_priv.0
 *fill*         0x000000000000ab8d        0x3 
 .sbss.macPendingQueue_list.lto_priv.0
                0x000000000000ab90        0x4 /cygdrive/c/Users/huangli/AppData/Local/Temp/concurrent_sampleLight_b92.elf.60zuQo.ltrans3.ltrans.o
                0x000000000000ab90                macPendingQueue_list.lto_priv.0
 .sbss.ota_program_offset
                0x000000000000ab94        0x4 /cygdrive/c/Users/huangli/AppData/Local/Temp/concurrent_sampleLight_b92.elf.60zuQo.ltrans3.ltrans.o
 .sbss.ratios.1.lto_priv.0
                0x000000000000ab98        0x8 /cygdrive/c/Users/huangli/AppData/Local/Temp/concurrent_sampleLight_b92.elf.60zuQo.ltrans3.ltrans.o
                0x000000000000ab98                ratios.1.lto_priv.0
 .sbss.sample_count.2
                0x000000000000aba0        0x1 /cygdrive/c/Users/huangli/AppData/Local/Temp/concurrent_sampleLight_b92.elf.60zuQo.ltrans3.ltrans.o
 *fill*         0x000000000000aba1        0x1 
 .sbss.sample_value.1
                0x000000000000aba2        0x2 /cygdrive/c/Users/huangli/AppData/Local/Temp/concurrent_sampleLight_b92.elf.60zuQo.ltrans3.ltrans.o
 .sbss.sg_tw_current
                0x000000000000aba4        0x1 /cygdrive/c/Users/huangli/AppData/Local/Temp/concurrent_sampleLight_b92.elf.60zuQo.ltrans3.ltrans.o
 *fill*         0x000000000000aba5        0x3 
 .sbss.smp_param_next_start_addr
                0x000000000000aba8        0x4 /cygdrive/c/Users/huangli/AppData/Local/Temp/concurrent_sampleLight_b92.elf.60zuQo.ltrans3.ltrans.o
 .sbss.T_DBG_linkStatus
                0x000000000000abac        0x1 /cygdrive/c/Users/huangli/AppData/Local/Temp/concurrent_sampleLight_b92.elf.60zuQo.ltrans4.ltrans.o
 *fill*         0x000000000000abad        0x3 
 .sbss.addrConflictHandleTimer
                0x000000000000abb0        0x4 /cygdrive/c/Users/huangli/AppData/Local/Temp/concurrent_sampleLight_b92.elf.60zuQo.ltrans4.ltrans.o
                0x000000000000abb0                addrConflictHandleTimer
 .sbss.conflictInfo
                0x000000000000abb4        0x4 /cygdrive/c/Users/huangli/AppData/Local/Temp/concurrent_sampleLight_b92.elf.60zuQo.ltrans4.ltrans.o
                0x000000000000abb4                conflictInfo
 .sbss.g_brcTransTabCnt
                0x000000000000abb8        0x1 /cygdrive/c/Users/huangli/AppData/Local/Temp/concurrent_sampleLight_b92.elf.60zuQo.ltrans4.ltrans.o
 *fill*         0x000000000000abb9        0x3 
 .sbss.g_secondCnt
                0x000000000000abbc        0x4 /cygdrive/c/Users/huangli/AppData/Local/Temp/concurrent_sampleLight_b92.elf.60zuQo.ltrans4.ltrans.o
                0x000000000000abbc                g_secondCnt
 .sbss.g_txDataPendTabCnt
                0x000000000000abc0        0x1 /cygdrive/c/Users/huangli/AppData/Local/Temp/concurrent_sampleLight_b92.elf.60zuQo.ltrans4.ltrans.o
                0x000000000000abc0                g_txDataPendTabCnt
 .sbss.linkStExpiry.lto_priv.0
                0x000000000000abc1        0x1 /cygdrive/c/Users/huangli/AppData/Local/Temp/concurrent_sampleLight_b92.elf.60zuQo.ltrans4.ltrans.o
                0x000000000000abc1                linkStExpiry.lto_priv.0
 *fill*         0x000000000000abc2        0x2 
 .sbss.linkStTimer
                0x000000000000abc4        0x4 /cygdrive/c/Users/huangli/AppData/Local/Temp/concurrent_sampleLight_b92.elf.60zuQo.ltrans4.ltrans.o
                0x000000000000abc4                linkStTimer
 .sbss.pNebEntry.0
                0x000000000000abc8        0x4 /cygdrive/c/Users/huangli/AppData/Local/Temp/concurrent_sampleLight_b92.elf.60zuQo.ltrans4.ltrans.o
 .sbss.panidConflictTimerEvt
                0x000000000000abcc        0x4 /cygdrive/c/Users/huangli/AppData/Local/Temp/concurrent_sampleLight_b92.elf.60zuQo.ltrans4.ltrans.o
                0x000000000000abcc                panidConflictTimerEvt
 .sbss.rejoinRespPollCnt
                0x000000000000abd0        0x1 /cygdrive/c/Users/huangli/AppData/Local/Temp/concurrent_sampleLight_b92.elf.60zuQo.ltrans4.ltrans.o
 *fill*         0x000000000000abd1        0x3 
 .sbss.rejoinRespTimeoutEvt
                0x000000000000abd4        0x4 /cygdrive/c/Users/huangli/AppData/Local/Temp/concurrent_sampleLight_b92.elf.60zuQo.ltrans4.ltrans.o
 .sbss.soft_rssi
                0x000000000000abd8        0x1 /cygdrive/c/Users/huangli/AppData/Local/Temp/concurrent_sampleLight_b92.elf.60zuQo.ltrans4.ltrans.o
 .sbss.tx_fifo_rptr
                0x000000000000abd9        0x1 /cygdrive/c/Users/huangli/AppData/Local/Temp/concurrent_sampleLight_b92.elf.60zuQo.ltrans4.ltrans.o
 .sbss.tx_fifo_wptr
                0x000000000000abda        0x1 /cygdrive/c/Users/huangli/AppData/Local/Temp/concurrent_sampleLight_b92.elf.60zuQo.ltrans4.ltrans.o
 *fill*         0x000000000000abdb        0x1 
 .sbss.zdo_mgmt_nwk_flag
                0x000000000000abdc        0x4 /cygdrive/c/Users/huangli/AppData/Local/Temp/concurrent_sampleLight_b92.elf.60zuQo.ltrans4.ltrans.o
                0x000000000000abdc                zdo_mgmt_nwk_flag
 .sbss.T_DBG_fgmtBlk
                0x000000000000abe0        0x8 /cygdrive/c/Users/huangli/AppData/Local/Temp/concurrent_sampleLight_b92.elf.60zuQo.ltrans5.ltrans.o
 .sbss.T_DBG_fgmtCnf
                0x000000000000abe8        0x8 /cygdrive/c/Users/huangli/AppData/Local/Temp/concurrent_sampleLight_b92.elf.60zuQo.ltrans5.ltrans.o
 .sbss.T_DBG_fgmtTout
                0x000000000000abf0        0x1 /cygdrive/c/Users/huangli/AppData/Local/Temp/concurrent_sampleLight_b92.elf.60zuQo.ltrans5.ltrans.o
 .sbss.apsDuplicateCheckFlag
                0x000000000000abf1        0x1 /cygdrive/c/Users/huangli/AppData/Local/Temp/concurrent_sampleLight_b92.elf.60zuQo.ltrans5.ltrans.o
 *fill*         0x000000000000abf2        0x2 
 .sbss.concentratorDiscoveryTimer
                0x000000000000abf4        0x4 /cygdrive/c/Users/huangli/AppData/Local/Temp/concurrent_sampleLight_b92.elf.60zuQo.ltrans5.ltrans.o
 .sbss.deviceInfoRsp
                0x000000000000abf8        0x1 /cygdrive/c/Users/huangli/AppData/Local/Temp/concurrent_sampleLight_b92.elf.60zuQo.ltrans5.ltrans.o
 *fill*         0x000000000000abf9        0x1 
 .sbss.dstPanID
                0x000000000000abfa        0x2 /cygdrive/c/Users/huangli/AppData/Local/Temp/concurrent_sampleLight_b92.elf.60zuQo.ltrans5.ltrans.o
 .sbss.ent.0    0x000000000000abfc        0x4 /cygdrive/c/Users/huangli/AppData/Local/Temp/concurrent_sampleLight_b92.elf.60zuQo.ltrans5.ltrans.o
 .sbss.g_apsTxCacheNum
                0x000000000000ac00        0x1 /cygdrive/c/Users/huangli/AppData/Local/Temp/concurrent_sampleLight_b92.elf.60zuQo.ltrans5.ltrans.o
 .sbss.g_routeDiscTabCnt
                0x000000000000ac01        0x1 /cygdrive/c/Users/huangli/AppData/Local/Temp/concurrent_sampleLight_b92.elf.60zuQo.ltrans5.ltrans.o
 .sbss.g_routeReqId
                0x000000000000ac02        0x1 /cygdrive/c/Users/huangli/AppData/Local/Temp/concurrent_sampleLight_b92.elf.60zuQo.ltrans5.ltrans.o
 *fill*         0x000000000000ac03        0x1 
 .sbss.permitJoinTimerEvt
                0x000000000000ac04        0x4 /cygdrive/c/Users/huangli/AppData/Local/Temp/concurrent_sampleLight_b92.elf.60zuQo.ltrans5.ltrans.o
 .sbss.remainChildListNum.1
                0x000000000000ac08        0x1 /cygdrive/c/Users/huangli/AppData/Local/Temp/concurrent_sampleLight_b92.elf.60zuQo.ltrans5.ltrans.o
 .sbss.zdpCblWptr
                0x000000000000ac09        0x1 /cygdrive/c/Users/huangli/AppData/Local/Temp/concurrent_sampleLight_b92.elf.60zuQo.ltrans5.ltrans.o
 .sbss.zdp_txSeqNo.lto_priv.0
                0x000000000000ac0a        0x1 /cygdrive/c/Users/huangli/AppData/Local/Temp/concurrent_sampleLight_b92.elf.60zuQo.ltrans5.ltrans.o
                0x000000000000ac0a                zdp_txSeqNo.lto_priv.0
 *fill*         0x000000000000ac0b        0x1 
 .sbss.g_pwm_set
                0x000000000000ac0c        0x4 /cygdrive/c/Users/huangli/AppData/Local/Temp/concurrent_sampleLight_b92.elf.60zuQo.ltrans6.ltrans.o
 .sbss.isInitExecuted.0.lto_priv.0
                0x000000000000ac10        0x1 /cygdrive/c/Users/huangli/AppData/Local/Temp/concurrent_sampleLight_b92.elf.60zuQo.ltrans6.ltrans.o
 .sbss.isInitExecuted.0.lto_priv.2
                0x000000000000ac11        0x1 /cygdrive/c/Users/huangli/AppData/Local/Temp/concurrent_sampleLight_b92.elf.60zuQo.ltrans6.ltrans.o
 *fill*         0x000000000000ac12        0x2 
 .sbss.zdo_bind_timer_event
                0x000000000000ac14        0x4 /cygdrive/c/Users/huangli/AppData/Local/Temp/concurrent_sampleLight_b92.elf.60zuQo.ltrans6.ltrans.o
 .sbss.g_pm_mspi_cfg
                0x000000000000ac18        0x4 /cygdrive/c/Users/huangli/AppData/Local/Temp/concurrent_sampleLight_b92.elf.60zuQo.ltrans7.ltrans.o
                0x000000000000ac18                g_pm_mspi_cfg
 .sbss.T_zbBufDbg
                0x000000000000ac1c        0x4 /cygdrive/c/Users/huangli/AppData/Local/Temp/concurrent_sampleLight_b92.elf.60zuQo.ltrans7.ltrans.o
 .sbss.T_zbBufFreeDbg
                0x000000000000ac20        0x4 /cygdrive/c/Users/huangli/AppData/Local/Temp/concurrent_sampleLight_b92.elf.60zuQo.ltrans7.ltrans.o
 .sbss.offTime.0
                0x000000000000ac24        0x4 /cygdrive/c/Users/huangli/AppData/Local/Temp/concurrent_sampleLight_b92.elf.60zuQo.ltrans7.ltrans.o
 .sbss.prevSysTick
                0x000000000000ac28        0x4 /cygdrive/c/Users/huangli/AppData/Local/Temp/concurrent_sampleLight_b92.elf.60zuQo.ltrans7.ltrans.o
 .sbss.remSysTick
                0x000000000000ac2c        0x4 /cygdrive/c/Users/huangli/AppData/Local/Temp/concurrent_sampleLight_b92.elf.60zuQo.ltrans7.ltrans.o
 .sbss.__mculib_REENT_errno
                0x000000000000ac30        0x4 C:\TelinkIoTStudio\RDS\V5.1.2\toolchains\nds32le-elf-mculib-v5f\riscv32-elf\lib/libc.a(lib_a-errno.o)
                0x000000000000ac30                __mculib_REENT_errno
 .sbss.__vprintf_buf_len
                0x000000000000ac34        0x4 C:\TelinkIoTStudio\RDS\V5.1.2\toolchains\nds32le-elf-mculib-v5f\riscv32-elf\lib/libc.a(lib_a-vprintf.o)
 .sbss.__vprintf_buf
                0x000000000000ac38        0x4 C:\TelinkIoTStudio\RDS\V5.1.2\toolchains\nds32le-elf-mculib-v5f\riscv32-elf\lib/libc.a(lib_a-vprintf.o)
 .sbss.__printf_count
                0x000000000000ac3c        0x4 C:\TelinkIoTStudio\RDS\V5.1.2\toolchains\nds32le-elf-mculib-v5f\riscv32-elf\lib/libc.a(lib_a-printf_data.o)
                0x000000000000ac3c                __printf_count
 *(.scommon .scommon.*)

.bss            0x000000000000ac40     0x8be0 load address 0x000000002019a390
 *(.dynbss)
 *(.bss .bss.* .gnu.linkonce.b.*)
 .bss.g_ssDevKeyPair
                0x000000000000ac40       0x28 /cygdrive/c/Users/huangli/AppData/Local/Temp/concurrent_sampleLight_b92.elf.60zuQo.ltrans0.ltrans.o
                0x000000000000ac40                g_ssDevKeyPair
 .bss.size_3_mem
                0x000000000000ac68      0x400 /cygdrive/c/Users/huangli/AppData/Local/Temp/concurrent_sampleLight_b92.elf.60zuQo.ltrans0.ltrans.o
                0x000000000000ac68                size_3_mem
 .bss.size_2_mem
                0x000000000000b068      0x4c0 /cygdrive/c/Users/huangli/AppData/Local/Temp/concurrent_sampleLight_b92.elf.60zuQo.ltrans0.ltrans.o
                0x000000000000b068                size_2_mem
 .bss.size_1_mem
                0x000000000000b528      0x1e0 /cygdrive/c/Users/huangli/AppData/Local/Temp/concurrent_sampleLight_b92.elf.60zuQo.ltrans0.ltrans.o
                0x000000000000b528                size_1_mem
 .bss.aed.lto_priv.0
                0x000000000000b708       0x80 /cygdrive/c/Users/huangli/AppData/Local/Temp/concurrent_sampleLight_b92.elf.60zuQo.ltrans0.ltrans.o
                0x000000000000b708                aed.lto_priv.0
 .bss.aps_group_tbl
                0x000000000000b788       0xe0 /cygdrive/c/Users/huangli/AppData/Local/Temp/concurrent_sampleLight_b92.elf.60zuQo.ltrans0.ltrans.o
                0x000000000000b788                aps_group_tbl
 .bss.aps_ib    0x000000000000b868       0x14 /cygdrive/c/Users/huangli/AppData/Local/Temp/concurrent_sampleLight_b92.elf.60zuQo.ltrans0.ltrans.o
                0x000000000000b868                aps_ib
 .bss.g_apsBindingTbl
                0x000000000000b87c       0x70 /cygdrive/c/Users/huangli/AppData/Local/Temp/concurrent_sampleLight_b92.elf.60zuQo.ltrans0.ltrans.o
                0x000000000000b87c                g_apsBindingTbl
 .bss.g_bdbCtx  0x000000000000b8ec       0x30 /cygdrive/c/Users/huangli/AppData/Local/Temp/concurrent_sampleLight_b92.elf.60zuQo.ltrans0.ltrans.o
                0x000000000000b8ec                g_bdbCtx
 .bss.g_dualModeInfo
                0x000000000000b91c        0xc /cygdrive/c/Users/huangli/AppData/Local/Temp/concurrent_sampleLight_b92.elf.60zuQo.ltrans0.ltrans.o
                0x000000000000b91c                g_dualModeInfo
 .bss.g_nwkAddrMap
                0x000000000000b928      0xa0c /cygdrive/c/Users/huangli/AppData/Local/Temp/concurrent_sampleLight_b92.elf.60zuQo.ltrans0.ltrans.o
                0x000000000000b928                g_nwkAddrMap
 .bss.g_sysDiags
                0x000000000000c334       0x5c /cygdrive/c/Users/huangli/AppData/Local/Temp/concurrent_sampleLight_b92.elf.60zuQo.ltrans0.ltrans.o
                0x000000000000c334                g_sysDiags
 .bss.g_zbInfo  0x000000000000c390       0xc0 /cygdrive/c/Users/huangli/AppData/Local/Temp/concurrent_sampleLight_b92.elf.60zuQo.ltrans0.ltrans.o
                0x000000000000c390                g_zbInfo
 .bss.g_zbMacCtx
                0x000000000000c450        0xc /cygdrive/c/Users/huangli/AppData/Local/Temp/concurrent_sampleLight_b92.elf.60zuQo.ltrans0.ltrans.o
                0x000000000000c450                g_zbMacCtx
 .bss.g_zbNwkCtx
                0x000000000000c45c       0x50 /cygdrive/c/Users/huangli/AppData/Local/Temp/concurrent_sampleLight_b92.elf.60zuQo.ltrans0.ltrans.o
                0x000000000000c45c                g_zbNwkCtx
 .bss.g_zb_neighborTbl
                0x000000000000c4ac      0x45c /cygdrive/c/Users/huangli/AppData/Local/Temp/concurrent_sampleLight_b92.elf.60zuQo.ltrans0.ltrans.o
                0x000000000000c4ac                g_zb_neighborTbl
 .bss.g_zcl_sceneTab
                0x000000000000c908      0x190 /cygdrive/c/Users/huangli/AppData/Local/Temp/concurrent_sampleLight_b92.elf.60zuQo.ltrans0.ltrans.o
 .bss.g_zdo_nwk_manager
                0x000000000000ca98       0x28 /cygdrive/c/Users/huangli/AppData/Local/Temp/concurrent_sampleLight_b92.elf.60zuQo.ltrans0.ltrans.o
                0x000000000000ca98                g_zdo_nwk_manager
 .bss.reportingTab
                0x000000000000cac0      0x129 /cygdrive/c/Users/huangli/AppData/Local/Temp/concurrent_sampleLight_b92.elf.60zuQo.ltrans0.ltrans.o
                0x000000000000cac0                reportingTab
 *fill*         0x000000000000cbe9        0x3 
 .bss.rf_ack_buf
                0x000000000000cbec        0xc /cygdrive/c/Users/huangli/AppData/Local/Temp/concurrent_sampleLight_b92.elf.60zuQo.ltrans0.ltrans.o
                0x000000000000cbec                rf_ack_buf
 .bss.rf_tx_buf
                0x000000000000cbf8       0x84 /cygdrive/c/Users/huangli/AppData/Local/Temp/concurrent_sampleLight_b92.elf.60zuQo.ltrans0.ltrans.o
                0x000000000000cbf8                rf_tx_buf
 .bss.size_0_mem
                0x000000000000cc7c       0xc0 /cygdrive/c/Users/huangli/AppData/Local/Temp/concurrent_sampleLight_b92.elf.60zuQo.ltrans0.ltrans.o
                0x000000000000cc7c                size_0_mem
 .bss.zcl_vars  0x000000000000cd3c      0x148 /cygdrive/c/Users/huangli/AppData/Local/Temp/concurrent_sampleLight_b92.elf.60zuQo.ltrans0.ltrans.o
                0x000000000000cd3c                zcl_vars
 .bss.zdo_cfg_attributes
                0x000000000000ce84       0x18 /cygdrive/c/Users/huangli/AppData/Local/Temp/concurrent_sampleLight_b92.elf.60zuQo.ltrans0.ltrans.o
                0x000000000000ce84                zdo_cfg_attributes
 .bss.zdp_cbl   0x000000000000ce9c       0x20 /cygdrive/c/Users/huangli/AppData/Local/Temp/concurrent_sampleLight_b92.elf.60zuQo.ltrans0.ltrans.o
                0x000000000000ce9c                zdp_cbl
 .bss.sg_aging.lto_priv.0
                0x000000000000cebc       0x17 /cygdrive/c/Users/huangli/AppData/Local/Temp/concurrent_sampleLight_b92.elf.60zuQo.ltrans1.ltrans.o
                0x000000000000cebc                sg_aging.lto_priv.0
 *fill*         0x000000000000ced3        0x1 
 .bss.bltPri    0x000000000000ced4      0x174 /cygdrive/c/Users/huangli/AppData/Local/Temp/concurrent_sampleLight_b92.elf.60zuQo.ltrans1.ltrans.o
                0x000000000000ced4                bltPri
 .bss.bltScn    0x000000000000d048       0x80 /cygdrive/c/Users/huangli/AppData/Local/Temp/concurrent_sampleLight_b92.elf.60zuQo.ltrans1.ltrans.o
                0x000000000000d048                bltScn
 .bss.AA_blms   0x000000000000d0c8      0xec0 /cygdrive/c/Users/huangli/AppData/Local/Temp/concurrent_sampleLight_b92.elf.60zuQo.ltrans1.ltrans.o
                0x000000000000d0c8                AA_blms
 .bss.T_DBG_testIrq
                0x000000000000df88       0x10 /cygdrive/c/Users/huangli/AppData/Local/Temp/concurrent_sampleLight_b92.elf.60zuQo.ltrans1.ltrans.o
 .bss.T_rfStatusDbg
                0x000000000000df98      0x100 /cygdrive/c/Users/huangli/AppData/Local/Temp/concurrent_sampleLight_b92.elf.60zuQo.ltrans1.ltrans.o
                0x000000000000df98                T_rfStatusDbg
 .bss.T_stimeDbg
                0x000000000000e098       0x10 /cygdrive/c/Users/huangli/AppData/Local/Temp/concurrent_sampleLight_b92.elf.60zuQo.ltrans1.ltrans.o
 .bss.aclConn_param
                0x000000000000e0a8       0x24 /cygdrive/c/Users/huangli/AppData/Local/Temp/concurrent_sampleLight_b92.elf.60zuQo.ltrans1.ltrans.o
                0x000000000000e0a8                aclConn_param
 .bss.aclMas_param
                0x000000000000e0cc       0x40 /cygdrive/c/Users/huangli/AppData/Local/Temp/concurrent_sampleLight_b92.elf.60zuQo.ltrans1.ltrans.o
                0x000000000000e0cc                aclMas_param
 .bss.app_acl_cen_tx_fifo
                0x000000000000e10c      0x1b0 /cygdrive/c/Users/huangli/AppData/Local/Temp/concurrent_sampleLight_b92.elf.60zuQo.ltrans1.ltrans.o
 .bss.app_acl_per_tx_fifo
                0x000000000000e2bc      0x1b0 /cygdrive/c/Users/huangli/AppData/Local/Temp/concurrent_sampleLight_b92.elf.60zuQo.ltrans1.ltrans.o
 .bss.app_acl_rx_fifo
                0x000000000000e46c      0x180 /cygdrive/c/Users/huangli/AppData/Local/Temp/concurrent_sampleLight_b92.elf.60zuQo.ltrans1.ltrans.o
 .bss.app_cen_l2cap_rx_buf
                0x000000000000e5ec       0x20 /cygdrive/c/Users/huangli/AppData/Local/Temp/concurrent_sampleLight_b92.elf.60zuQo.ltrans1.ltrans.o
 .bss.app_per_l2cap_rx_buf
                0x000000000000e60c       0x20 /cygdrive/c/Users/huangli/AppData/Local/Temp/concurrent_sampleLight_b92.elf.60zuQo.ltrans1.ltrans.o
 .bss.app_per_l2cap_tx_buf
                0x000000000000e62c       0x20 /cygdrive/c/Users/huangli/AppData/Local/Temp/concurrent_sampleLight_b92.elf.60zuQo.ltrans1.ltrans.o
 .bss.blRslvLst
                0x000000000000e64c      0x12c /cygdrive/c/Users/huangli/AppData/Local/Temp/concurrent_sampleLight_b92.elf.60zuQo.ltrans1.ltrans.o
                0x000000000000e64c                blRslvLst
 .bss.blmsParam
                0x000000000000e778       0x3c /cygdrive/c/Users/huangli/AppData/Local/Temp/concurrent_sampleLight_b92.elf.60zuQo.ltrans1.ltrans.o
                0x000000000000e778                blmsParam
 .bss.bltAdv    0x000000000000e7b4       0x10 /cygdrive/c/Users/huangli/AppData/Local/Temp/concurrent_sampleLight_b92.elf.60zuQo.ltrans1.ltrans.o
                0x000000000000e7b4                bltAdv
 .bss.bltHci_rxAclfifo
                0x000000000000e7c4        0xc /cygdrive/c/Users/huangli/AppData/Local/Temp/concurrent_sampleLight_b92.elf.60zuQo.ltrans1.ltrans.o
                0x000000000000e7c4                bltHci_rxAclfifo
 .bss.bltLegAdv
                0x000000000000e7d0      0x124 /cygdrive/c/Users/huangli/AppData/Local/Temp/concurrent_sampleLight_b92.elf.60zuQo.ltrans1.ltrans.o
                0x000000000000e7d0                bltLegAdv
 .bss.bltMac    0x000000000000e8f4       0x13 /cygdrive/c/Users/huangli/AppData/Local/Temp/concurrent_sampleLight_b92.elf.60zuQo.ltrans1.ltrans.o
                0x000000000000e8f4                bltMac
 *fill*         0x000000000000e907        0x1 
 .bss.bltSche   0x000000000000e908       0x98 /cygdrive/c/Users/huangli/AppData/Local/Temp/concurrent_sampleLight_b92.elf.60zuQo.ltrans1.ltrans.o
                0x000000000000e908                bltSche
 .bss.blt_m_txfifo
                0x000000000000e9a0        0xc /cygdrive/c/Users/huangli/AppData/Local/Temp/concurrent_sampleLight_b92.elf.60zuQo.ltrans1.ltrans.o
                0x000000000000e9a0                blt_m_txfifo
 .bss.blt_rxfifo
                0x000000000000e9ac        0xc /cygdrive/c/Users/huangli/AppData/Local/Temp/concurrent_sampleLight_b92.elf.60zuQo.ltrans1.ltrans.o
                0x000000000000e9ac                blt_rxfifo
 .bss.blt_s_txfifo
                0x000000000000e9b8        0xc /cygdrive/c/Users/huangli/AppData/Local/Temp/concurrent_sampleLight_b92.elf.60zuQo.ltrans1.ltrans.o
                0x000000000000e9b8                blt_s_txfifo
 .bss.blt_smpProp
                0x000000000000e9c4       0x3c /cygdrive/c/Users/huangli/AppData/Local/Temp/concurrent_sampleLight_b92.elf.60zuQo.ltrans1.ltrans.o
                0x000000000000e9c4                blt_smpProp
 .bss.colorInfo.lto_priv.0
                0x000000000000ea00       0x34 /cygdrive/c/Users/huangli/AppData/Local/Temp/concurrent_sampleLight_b92.elf.60zuQo.ltrans1.ltrans.o
                0x000000000000ea00                colorInfo.lto_priv.0
 .bss.conn_dev_list
                0x000000000000ea34       0x40 /cygdrive/c/Users/huangli/AppData/Local/Temp/concurrent_sampleLight_b92.elf.60zuQo.ltrans1.ltrans.o
 .bss.ev_buf_vs
                0x000000000000ea74       0x20 /cygdrive/c/Users/huangli/AppData/Local/Temp/concurrent_sampleLight_b92.elf.60zuQo.ltrans1.ltrans.o
                0x000000000000ea74                ev_buf_vs
 .bss.ev_poll   0x000000000000ea94       0x18 /cygdrive/c/Users/huangli/AppData/Local/Temp/concurrent_sampleLight_b92.elf.60zuQo.ltrans1.ltrans.o
                0x000000000000ea94                ev_poll
 .bss.ev_timer  0x000000000000eaac      0x2ac /cygdrive/c/Users/huangli/AppData/Local/Temp/concurrent_sampleLight_b92.elf.60zuQo.ltrans1.ltrans.o
                0x000000000000eaac                ev_timer
 .bss.gLightCtx
                0x000000000000ed58       0x28 /cygdrive/c/Users/huangli/AppData/Local/Temp/concurrent_sampleLight_b92.elf.60zuQo.ltrans1.ltrans.o
                0x000000000000ed58                gLightCtx
 .bss.g_gpDataIndSecReqTab
                0x000000000000ed80       0x50 /cygdrive/c/Users/huangli/AppData/Local/Temp/concurrent_sampleLight_b92.elf.60zuQo.ltrans1.ltrans.o
                0x000000000000ed80                g_gpDataIndSecReqTab
 .bss.g_gpProxyTab
                0x000000000000edd0      0x146 /cygdrive/c/Users/huangli/AppData/Local/Temp/concurrent_sampleLight_b92.elf.60zuQo.ltrans1.ltrans.o
 *fill*         0x000000000000ef16        0x2 
 .bss.g_mPool   0x000000000000ef18     0x1d48 /cygdrive/c/Users/huangli/AppData/Local/Temp/concurrent_sampleLight_b92.elf.60zuQo.ltrans1.ltrans.o
                0x000000000000ef18                g_mPool
 .bss.g_nvItemLenCheckTbl
                0x0000000000010c60       0x40 /cygdrive/c/Users/huangli/AppData/Local/Temp/concurrent_sampleLight_b92.elf.60zuQo.ltrans1.ltrans.o
 .bss.g_token_info_set.lto_priv.0
                0x0000000000010ca0       0x82 /cygdrive/c/Users/huangli/AppData/Local/Temp/concurrent_sampleLight_b92.elf.60zuQo.ltrans1.ltrans.o
                0x0000000000010ca0                g_token_info_set.lto_priv.0
 *fill*         0x0000000000010d22        0x2 
 .bss.g_txQueue
                0x0000000000010d24      0x200 /cygdrive/c/Users/huangli/AppData/Local/Temp/concurrent_sampleLight_b92.elf.60zuQo.ltrans1.ltrans.o
 .bss.g_zbTaskQ
                0x0000000000010f24      0x294 /cygdrive/c/Users/huangli/AppData/Local/Temp/concurrent_sampleLight_b92.elf.60zuQo.ltrans1.ltrans.o
                0x0000000000010f24                g_zbTaskQ
 .bss.hwTmr_vars
                0x00000000000111b8       0x50 /cygdrive/c/Users/huangli/AppData/Local/Temp/concurrent_sampleLight_b92.elf.60zuQo.ltrans1.ltrans.o
 .bss.l2cap_buff_m
                0x0000000000011208       0x14 /cygdrive/c/Users/huangli/AppData/Local/Temp/concurrent_sampleLight_b92.elf.60zuQo.ltrans1.ltrans.o
                0x0000000000011208                l2cap_buff_m
 .bss.l2cap_buff_s
                0x000000000001121c       0x14 /cygdrive/c/Users/huangli/AppData/Local/Temp/concurrent_sampleLight_b92.elf.60zuQo.ltrans1.ltrans.o
                0x000000000001121c                l2cap_buff_s
 .bss.levelInfo.lto_priv.0
                0x0000000000011230        0xc /cygdrive/c/Users/huangli/AppData/Local/Temp/concurrent_sampleLight_b92.elf.60zuQo.ltrans1.ltrans.o
                0x0000000000011230                levelInfo.lto_priv.0
 .bss.light_state.lto_priv.0
                0x000000000001123c       0x10 /cygdrive/c/Users/huangli/AppData/Local/Temp/concurrent_sampleLight_b92.elf.60zuQo.ltrans1.ltrans.o
                0x000000000001123c                light_state.lto_priv.0
 .bss.mac_trx_vars.lto_priv.0
                0x000000000001124c        0xc /cygdrive/c/Users/huangli/AppData/Local/Temp/concurrent_sampleLight_b92.elf.60zuQo.ltrans1.ltrans.o
                0x000000000001124c                mac_trx_vars.lto_priv.0
 .bss.secondTimer
                0x0000000000011258       0x1c /cygdrive/c/Users/huangli/AppData/Local/Temp/concurrent_sampleLight_b92.elf.60zuQo.ltrans1.ltrans.o
 .bss.smp_param_own
                0x0000000000011274      0x2d0 /cygdrive/c/Users/huangli/AppData/Local/Temp/concurrent_sampleLight_b92.elf.60zuQo.ltrans1.ltrans.o
                0x0000000000011274                smp_param_own
 .bss.taskQ_user
                0x0000000000011544      0x104 /cygdrive/c/Users/huangli/AppData/Local/Temp/concurrent_sampleLight_b92.elf.60zuQo.ltrans1.ltrans.o
                0x0000000000011544                taskQ_user
 .bss.zclGpAttr_gpSharedSecKey
                0x0000000000011648       0x10 /cygdrive/c/Users/huangli/AppData/Local/Temp/concurrent_sampleLight_b92.elf.60zuQo.ltrans1.ltrans.o
 .bss.zclGpAttr_proxyTabEntry
                0x0000000000011658       0x4d /cygdrive/c/Users/huangli/AppData/Local/Temp/concurrent_sampleLight_b92.elf.60zuQo.ltrans1.ltrans.o
 *fill*         0x00000000000116a5        0x3 
 .bss.zdo_epDesc.lto_priv.0
                0x00000000000116a8       0x10 /cygdrive/c/Users/huangli/AppData/Local/Temp/concurrent_sampleLight_b92.elf.60zuQo.ltrans1.ltrans.o
                0x00000000000116a8                zdo_epDesc.lto_priv.0
 .bss.blt_buff_prepare_write
                0x00000000000116b8      0x100 /cygdrive/c/Users/huangli/AppData/Local/Temp/concurrent_sampleLight_b92.elf.60zuQo.ltrans2.ltrans.o
 .bss.ble_host_packet_hold.lto_priv.0
                0x00000000000117b8       0x30 /cygdrive/c/Users/huangli/AppData/Local/Temp/concurrent_sampleLight_b92.elf.60zuQo.ltrans2.ltrans.o
                0x00000000000117b8                ble_host_packet_hold.lto_priv.0
 .bss.blhAclms  0x00000000000117e8       0x60 /cygdrive/c/Users/huangli/AppData/Local/Temp/concurrent_sampleLight_b92.elf.60zuQo.ltrans2.ltrans.o
 .bss.blmsMaster
                0x0000000000011848      0x590 /cygdrive/c/Users/huangli/AppData/Local/Temp/concurrent_sampleLight_b92.elf.60zuQo.ltrans2.ltrans.o
                0x0000000000011848                blmsMaster
 .bss.blmsMasterEncPktPending
                0x0000000000011dd8      0x310 /cygdrive/c/Users/huangli/AppData/Local/Temp/concurrent_sampleLight_b92.elf.60zuQo.ltrans2.ltrans.o
                0x0000000000011dd8                blmsMasterEncPktPending
 .bss.blmsSlave
                0x00000000000120e8      0x720 /cygdrive/c/Users/huangli/AppData/Local/Temp/concurrent_sampleLight_b92.elf.60zuQo.ltrans2.ltrans.o
                0x00000000000120e8                blmsSlave
 .bss.bltAddr   0x0000000000012808       0x10 /cygdrive/c/Users/huangli/AppData/Local/Temp/concurrent_sampleLight_b92.elf.60zuQo.ltrans2.ltrans.o
                0x0000000000012808                bltAddr
 .bss.bltInit   0x0000000000012818       0x20 /cygdrive/c/Users/huangli/AppData/Local/Temp/concurrent_sampleLight_b92.elf.60zuQo.ltrans2.ltrans.o
                0x0000000000012818                bltInit
 .bss.bltRxPkt  0x0000000000012838       0x10 /cygdrive/c/Users/huangli/AppData/Local/Temp/concurrent_sampleLight_b92.elf.60zuQo.ltrans2.ltrans.o
                0x0000000000012838                bltRxPkt
 .bss.blt_event_func
                0x0000000000012848       0x14 /cygdrive/c/Users/huangli/AppData/Local/Temp/concurrent_sampleLight_b92.elf.60zuQo.ltrans2.ltrans.o
 .bss.blt_scanRsp_device
                0x000000000001285c       0x40 /cygdrive/c/Users/huangli/AppData/Local/Temp/concurrent_sampleLight_b92.elf.60zuQo.ltrans2.ltrans.o
                0x000000000001285c                blt_scanRsp_device
 .bss.g_macTimerEvt
                0x000000000001289c        0xc /cygdrive/c/Users/huangli/AppData/Local/Temp/concurrent_sampleLight_b92.elf.60zuQo.ltrans2.ltrans.o
                0x000000000001289c                g_macTimerEvt
 .bss.gap_ms_para
                0x00000000000128a8       0x80 /cygdrive/c/Users/huangli/AppData/Local/Temp/concurrent_sampleLight_b92.elf.60zuQo.ltrans2.ltrans.o
 .bss.gap_s_para
                0x0000000000012928       0x40 /cygdrive/c/Users/huangli/AppData/Local/Temp/concurrent_sampleLight_b92.elf.60zuQo.ltrans2.ltrans.o
 .bss.gattcConn
                0x0000000000012968       0x20 /cygdrive/c/Users/huangli/AppData/Local/Temp/concurrent_sampleLight_b92.elf.60zuQo.ltrans2.ltrans.o
 .bss.lightNumCheck
                0x0000000000012988       0x14 /cygdrive/c/Users/huangli/AppData/Local/Temp/concurrent_sampleLight_b92.elf.60zuQo.ltrans2.ltrans.o
 .bss.priChnScn_tbl
                0x000000000001299c       0x40 /cygdrive/c/Users/huangli/AppData/Local/Temp/concurrent_sampleLight_b92.elf.60zuQo.ltrans2.ltrans.o
 .bss.smpMStblBondDevice
                0x00000000000129dc       0x34 /cygdrive/c/Users/huangli/AppData/Local/Temp/concurrent_sampleLight_b92.elf.60zuQo.ltrans2.ltrans.o
                0x00000000000129dc                smpMStblBondDevice
 .bss.smp_param_peer
                0x0000000000012a10      0x1cc /cygdrive/c/Users/huangli/AppData/Local/Temp/concurrent_sampleLight_b92.elf.60zuQo.ltrans2.ltrans.o
                0x0000000000012a10                smp_param_peer
 .bss.smp_sts_param
                0x0000000000012bdc       0x80 /cygdrive/c/Users/huangli/AppData/Local/Temp/concurrent_sampleLight_b92.elf.60zuQo.ltrans2.ltrans.o
                0x0000000000012bdc                smp_sts_param
 .bss.pm_retention_register_storage_buff2
                0x0000000000012c5c       0x10 /cygdrive/c/Users/huangli/AppData/Local/Temp/concurrent_sampleLight_b92.elf.60zuQo.ltrans3.ltrans.o
 .bss.LightEffectStateList
                0x0000000000012c6c       0xf0 /cygdrive/c/Users/huangli/AppData/Local/Temp/concurrent_sampleLight_b92.elf.60zuQo.ltrans3.ltrans.o
                0x0000000000012c6c                LightEffectStateList
 .bss.blotaSvr  0x0000000000012d5c       0x54 /cygdrive/c/Users/huangli/AppData/Local/Temp/concurrent_sampleLight_b92.elf.60zuQo.ltrans3.ltrans.o
                0x0000000000012d5c                blotaSvr
 .bss.exp_table.lto_priv.0
                0x0000000000012db0      0x200 /cygdrive/c/Users/huangli/AppData/Local/Temp/concurrent_sampleLight_b92.elf.60zuQo.ltrans3.ltrans.o
                0x0000000000012db0                exp_table.lto_priv.0
 .bss.gMinitrimEvent.lto_priv.0
                0x0000000000012fb0       0x5c /cygdrive/c/Users/huangli/AppData/Local/Temp/concurrent_sampleLight_b92.elf.60zuQo.ltrans3.ltrans.o
                0x0000000000012fb0                gMinitrimEvent.lto_priv.0
 .bss.g_lightEffectTimer
                0x000000000001300c       0x1c /cygdrive/c/Users/huangli/AppData/Local/Temp/concurrent_sampleLight_b92.elf.60zuQo.ltrans3.ltrans.o
                0x000000000001300c                g_lightEffectTimer
 .bss.g_macScanParam
                0x0000000000013028       0x14 /cygdrive/c/Users/huangli/AppData/Local/Temp/concurrent_sampleLight_b92.elf.60zuQo.ltrans3.ltrans.o
                0x0000000000013028                g_macScanParam
 .bss.g_trf_timer
                0x000000000001303c       0x1c /cygdrive/c/Users/huangli/AppData/Local/Temp/concurrent_sampleLight_b92.elf.60zuQo.ltrans3.ltrans.o
 .bss.i2c_data.0
                0x0000000000013058        0xe /cygdrive/c/Users/huangli/AppData/Local/Temp/concurrent_sampleLight_b92.elf.60zuQo.ltrans3.ltrans.o
 *fill*         0x0000000000013066        0x2 
 .bss.i2c_data.1
                0x0000000000013068       0x16 /cygdrive/c/Users/huangli/AppData/Local/Temp/concurrent_sampleLight_b92.elf.60zuQo.ltrans3.ltrans.o
 *fill*         0x000000000001307e        0x2 
 .bss.model_id.0
                0x0000000000013080       0x21 /cygdrive/c/Users/huangli/AppData/Local/Temp/concurrent_sampleLight_b92.elf.60zuQo.ltrans3.ltrans.o
 *fill*         0x00000000000130a1        0x3 
 .bss.smpOwnPairingConfirm
                0x00000000000130a4       0x10 /cygdrive/c/Users/huangli/AppData/Local/Temp/concurrent_sampleLight_b92.elf.60zuQo.ltrans3.ltrans.o
 .bss.g_brcTransTab
                0x00000000000130b4       0xf0 /cygdrive/c/Users/huangli/AppData/Local/Temp/concurrent_sampleLight_b92.elf.60zuQo.ltrans4.ltrans.o
 .bss.g_panIdConflictDected.lto_priv.0
                0x00000000000131a4       0x10 /cygdrive/c/Users/huangli/AppData/Local/Temp/concurrent_sampleLight_b92.elf.60zuQo.ltrans4.ltrans.o
                0x00000000000131a4                g_panIdConflictDected.lto_priv.0
 .bss.g_routeDiscTab
                0x00000000000131b4       0xf0 /cygdrive/c/Users/huangli/AppData/Local/Temp/concurrent_sampleLight_b92.elf.60zuQo.ltrans4.ltrans.o
                0x00000000000131b4                g_routeDiscTab
 .bss.g_routingTab
                0x00000000000132a4      0x180 /cygdrive/c/Users/huangli/AppData/Local/Temp/concurrent_sampleLight_b92.elf.60zuQo.ltrans4.ltrans.o
                0x00000000000132a4                g_routingTab
 .bss.g_txDataPendTab
                0x0000000000013424       0xc0 /cygdrive/c/Users/huangli/AppData/Local/Temp/concurrent_sampleLight_b92.elf.60zuQo.ltrans4.ltrans.o
                0x0000000000013424                g_txDataPendTab
 .bss.T_DBG_fgmt
                0x00000000000134e4       0x10 /cygdrive/c/Users/huangli/AppData/Local/Temp/concurrent_sampleLight_b92.elf.60zuQo.ltrans5.ltrans.o
 .bss.aps_group_q
                0x00000000000134f4       0x18 /cygdrive/c/Users/huangli/AppData/Local/Temp/concurrent_sampleLight_b92.elf.60zuQo.ltrans5.ltrans.o
 .bss.aps_txCache_tbl
                0x000000000001350c      0x1c0 /cygdrive/c/Users/huangli/AppData/Local/Temp/concurrent_sampleLight_b92.elf.60zuQo.ltrans5.ltrans.o
 .bss.g_apsDataFragmentRcvWin
                0x00000000000136cc       0x5c /cygdrive/c/Users/huangli/AppData/Local/Temp/concurrent_sampleLight_b92.elf.60zuQo.ltrans5.ltrans.o
 .bss.g_apsDataFragmentTransWin.lto_priv.0
                0x0000000000013728       0x30 /cygdrive/c/Users/huangli/AppData/Local/Temp/concurrent_sampleLight_b92.elf.60zuQo.ltrans5.ltrans.o
                0x0000000000013728                g_apsDataFragmentTransWin.lto_priv.0
 .bss.LightStatusBackup
                0x0000000000013758       0x10 /cygdrive/c/Users/huangli/AppData/Local/Temp/concurrent_sampleLight_b92.elf.60zuQo.ltrans6.ltrans.o
 .bss.ed_binding_ctx
                0x0000000000013768       0x34 /cygdrive/c/Users/huangli/AppData/Local/Temp/concurrent_sampleLight_b92.elf.60zuQo.ltrans6.ltrans.o
 .bss.ll_whiteList_tbl
                0x000000000001379c       0x22 /cygdrive/c/Users/huangli/AppData/Local/Temp/concurrent_sampleLight_b92.elf.60zuQo.ltrans6.ltrans.o
 *fill*         0x00000000000137be        0x2 
 .bss.zdo_nur   0x00000000000137c0        0xc /cygdrive/c/Users/huangli/AppData/Local/Temp/concurrent_sampleLight_b92.elf.60zuQo.ltrans6.ltrans.o
 .bss.conn_req_info
                0x00000000000137cc       0x10 /cygdrive/c/Users/huangli/AppData/Local/Temp/concurrent_sampleLight_b92.elf.60zuQo.ltrans7.ltrans.o
 .bss.glb_temp_rx_buff
                0x00000000000137dc       0x40 /cygdrive/c/Users/huangli/AppData/Local/Temp/concurrent_sampleLight_b92.elf.60zuQo.ltrans7.ltrans.o
 *(COMMON)
                0x0000000000013820                . = ALIGN (0x8)
 *fill*         0x000000000001381c        0x4 
                0x0000000000013820                PROVIDE (_BSS_VMA_END = .)

.sdk_version    0x0000000000013820       0x16 load address 0x000000002019a036
 *(.sdk_version)
 .sdk_version   0x0000000000013820       0x16 /cygdrive/c/Users/huangli/AppData/Local/Temp/concurrent_sampleLight_b92.elf.60zuQo.ltrans7.ltrans.o
                0x000000000004604c                PROVIDE (BIN_SIZE = ((LOADADDR (.sdk_version) + SIZEOF (.sdk_version)) - BIN_BEGIN))
                0x0000000000013838                . = ALIGN (0x8)
                0x0000000000013838                _end = .
                [!provide]                        PROVIDE (end = .)
                0x0000000000020000                PROVIDE (_STACK_TOP = (((0x20000 + (0x20000 * __IRAM_2_EN)) + (0x60000 * __DRAM_1_EN)) + (0x20000 * __DRAM_2_EN)))
                0x0000000000100000                PROVIDE (FLASH_SIZE = 0x100000)
                0x0000000000000001                ASSERT ((BIN_SIZE <= FLASH_SIZE), BIN FILE OVERFLOW)
OUTPUT(concurrent_sampleLight_b92.elf elf32-littleriscv)

.comment        0x0000000000000000       0x3c
 .comment       0x0000000000000000       0x3d /cygdrive/c/Users/huangli/AppData/Local/Temp/concurrent_sampleLight_b92.elf.60zuQo.ltrans0.ltrans.o
 .comment       0x0000000000000000       0x3d /cygdrive/c/Users/huangli/AppData/Local/Temp/concurrent_sampleLight_b92.elf.60zuQo.ltrans1.ltrans.o
 .comment       0x0000000000000000       0x3d /cygdrive/c/Users/huangli/AppData/Local/Temp/concurrent_sampleLight_b92.elf.60zuQo.ltrans2.ltrans.o
 .comment       0x0000000000000000       0x3d /cygdrive/c/Users/huangli/AppData/Local/Temp/concurrent_sampleLight_b92.elf.60zuQo.ltrans3.ltrans.o
 .comment       0x0000000000000000       0x3d /cygdrive/c/Users/huangli/AppData/Local/Temp/concurrent_sampleLight_b92.elf.60zuQo.ltrans4.ltrans.o
 .comment       0x0000000000000000       0x3d /cygdrive/c/Users/huangli/AppData/Local/Temp/concurrent_sampleLight_b92.elf.60zuQo.ltrans5.ltrans.o
 .comment       0x0000000000000000       0x3d /cygdrive/c/Users/huangli/AppData/Local/Temp/concurrent_sampleLight_b92.elf.60zuQo.ltrans6.ltrans.o
 .comment       0x0000000000000000       0x3d /cygdrive/c/Users/huangli/AppData/Local/Temp/concurrent_sampleLight_b92.elf.60zuQo.ltrans7.ltrans.o
 .comment       0x0000000000000000       0x3c C:\TelinkIoTStudio\RDS\V5.1.2\toolchains\nds32le-elf-mculib-v5f\riscv32-elf\lib/libm.a(lib_a-exp.o)
                                         0x3d (size before relaxing)
 .comment       0x000000000000003c       0x3d C:\TelinkIoTStudio\RDS\V5.1.2\toolchains\nds32le-elf-mculib-v5f\riscv32-elf\lib/libm.a(lib_a-exp_data.o)
 .comment       0x000000000000003c       0x3d C:\TelinkIoTStudio\RDS\V5.1.2\toolchains\nds32le-elf-mculib-v5f\riscv32-elf\lib/libm.a(lib_a-log.o)
 .comment       0x000000000000003c       0x3d C:\TelinkIoTStudio\RDS\V5.1.2\toolchains\nds32le-elf-mculib-v5f\riscv32-elf\lib/libm.a(lib_a-log_data.o)
 .comment       0x000000000000003c       0x3d C:\TelinkIoTStudio\RDS\V5.1.2\toolchains\nds32le-elf-mculib-v5f\riscv32-elf\lib/libm.a(lib_a-math_err.o)
 .comment       0x000000000000003c       0x3d C:\TelinkIoTStudio\RDS\V5.1.2\toolchains\nds32le-elf-mculib-v5f\riscv32-elf\lib/libm.a(lib_a-s_fabs.o)
 .comment       0x000000000000003c       0x3d C:\TelinkIoTStudio\RDS\V5.1.2\toolchains\nds32le-elf-mculib-v5f\riscv32-elf\lib/libm.a(lib_a-sf_ceil.o)
 .comment       0x000000000000003c       0x3d /cygdrive/c/TelinkIoTStudio/RDS/V5.1.2/toolchains/nds32le-elf-mculib-v5f/bin/../lib/gcc/riscv32-elf/10.3.0/mext-dsp/libgcc.a(_clzsi2.o)
 .comment       0x000000000000003c       0x3d /cygdrive/c/TelinkIoTStudio/RDS/V5.1.2/toolchains/nds32le-elf-mculib-v5f/bin/../lib/gcc/riscv32-elf/10.3.0/mext-dsp/libgcc.a(_clz.o)
 .comment       0x000000000000003c       0x3d C:\TelinkIoTStudio\RDS\V5.1.2\toolchains\nds32le-elf-mculib-v5f\riscv32-elf\lib/libc.a(lib_a-errno.o)
 .comment       0x000000000000003c       0x3d C:\TelinkIoTStudio\RDS\V5.1.2\toolchains\nds32le-elf-mculib-v5f\riscv32-elf\lib/libc.a(lib_a-printf.o)
 .comment       0x000000000000003c       0x3d C:\TelinkIoTStudio\RDS\V5.1.2\toolchains\nds32le-elf-mculib-v5f\riscv32-elf\lib/libc.a(lib_a-vprintf.o)
 .comment       0x000000000000003c       0x3d C:\TelinkIoTStudio\RDS\V5.1.2\toolchains\nds32le-elf-mculib-v5f\riscv32-elf\lib/libc.a(lib_a-printf_data.o)
 .comment       0x000000000000003c       0x3d C:\TelinkIoTStudio\RDS\V5.1.2\toolchains\nds32le-elf-mculib-v5f\riscv32-elf\lib/libc.a(lib_a-printf_impl.o)
 .comment       0x000000000000003c       0x3d C:\TelinkIoTStudio\RDS\V5.1.2\toolchains\nds32le-elf-mculib-v5f\riscv32-elf\lib/libc.a(lib_a-printf_impl_float.o)
 .comment       0x000000000000003c       0x3d C:\TelinkIoTStudio\RDS\V5.1.2\toolchains\nds32le-elf-mculib-v5f\riscv32-elf\lib/libc.a(lib_a-strnlen.o)

.riscv.attributes
                0x0000000000000000       0x3a
 .riscv.attributes
                0x0000000000000000       0x3c /cygdrive/c/Users/huangli/AppData/Local/Temp/concurrent_sampleLight_b92.elf.60zuQo.ltrans0.ltrans.o
 .riscv.attributes
                0x000000000000003c       0x3c /cygdrive/c/Users/huangli/AppData/Local/Temp/concurrent_sampleLight_b92.elf.60zuQo.ltrans1.ltrans.o
 .riscv.attributes
                0x0000000000000078       0x3c /cygdrive/c/Users/huangli/AppData/Local/Temp/concurrent_sampleLight_b92.elf.60zuQo.ltrans2.ltrans.o
 .riscv.attributes
                0x00000000000000b4       0x3c /cygdrive/c/Users/huangli/AppData/Local/Temp/concurrent_sampleLight_b92.elf.60zuQo.ltrans3.ltrans.o
 .riscv.attributes
                0x00000000000000f0       0x3c /cygdrive/c/Users/huangli/AppData/Local/Temp/concurrent_sampleLight_b92.elf.60zuQo.ltrans4.ltrans.o
 .riscv.attributes
                0x000000000000012c       0x3c /cygdrive/c/Users/huangli/AppData/Local/Temp/concurrent_sampleLight_b92.elf.60zuQo.ltrans5.ltrans.o
 .riscv.attributes
                0x0000000000000168       0x3c /cygdrive/c/Users/huangli/AppData/Local/Temp/concurrent_sampleLight_b92.elf.60zuQo.ltrans6.ltrans.o
 .riscv.attributes
                0x00000000000001a4       0x3c /cygdrive/c/Users/huangli/AppData/Local/Temp/concurrent_sampleLight_b92.elf.60zuQo.ltrans7.ltrans.o
 .riscv.attributes
                0x00000000000001e0       0x33 ./platform/boot/b92/cstartup_b92.o
 .riscv.attributes
                0x0000000000000213       0x35 C:\TelinkIoTStudio\RDS\V5.1.2\toolchains\nds32le-elf-mculib-v5f\riscv32-elf\lib/libm.a(lib_a-exp.o)
 .riscv.attributes
                0x0000000000000248       0x35 C:\TelinkIoTStudio\RDS\V5.1.2\toolchains\nds32le-elf-mculib-v5f\riscv32-elf\lib/libm.a(lib_a-exp_data.o)
 .riscv.attributes
                0x000000000000027d       0x35 C:\TelinkIoTStudio\RDS\V5.1.2\toolchains\nds32le-elf-mculib-v5f\riscv32-elf\lib/libm.a(lib_a-log.o)
 .riscv.attributes
                0x00000000000002b2       0x35 C:\TelinkIoTStudio\RDS\V5.1.2\toolchains\nds32le-elf-mculib-v5f\riscv32-elf\lib/libm.a(lib_a-log_data.o)
 .riscv.attributes
                0x00000000000002e7       0x35 C:\TelinkIoTStudio\RDS\V5.1.2\toolchains\nds32le-elf-mculib-v5f\riscv32-elf\lib/libm.a(lib_a-math_err.o)
 .riscv.attributes
                0x000000000000031c       0x35 C:\TelinkIoTStudio\RDS\V5.1.2\toolchains\nds32le-elf-mculib-v5f\riscv32-elf\lib/libm.a(lib_a-s_fabs.o)
 .riscv.attributes
                0x0000000000000351       0x35 C:\TelinkIoTStudio\RDS\V5.1.2\toolchains\nds32le-elf-mculib-v5f\riscv32-elf\lib/libm.a(lib_a-sf_ceil.o)
 .riscv.attributes
                0x0000000000000386       0x38 /cygdrive/c/TelinkIoTStudio/RDS/V5.1.2/toolchains/nds32le-elf-mculib-v5f/bin/../lib/gcc/riscv32-elf/10.3.0/mext-dsp/libgcc.a(_addsub_df.o)
 .riscv.attributes
                0x00000000000003be       0x38 /cygdrive/c/TelinkIoTStudio/RDS/V5.1.2/toolchains/nds32le-elf-mculib-v5f/bin/../lib/gcc/riscv32-elf/10.3.0/mext-dsp/libgcc.a(_mul_df.o)
 .riscv.attributes
                0x00000000000003f6       0x38 /cygdrive/c/TelinkIoTStudio/RDS/V5.1.2/toolchains/nds32le-elf-mculib-v5f/bin/../lib/gcc/riscv32-elf/10.3.0/mext-dsp/libgcc.a(_div_df.o)
 .riscv.attributes
                0x000000000000042e       0x38 /cygdrive/c/TelinkIoTStudio/RDS/V5.1.2/toolchains/nds32le-elf-mculib-v5f/bin/../lib/gcc/riscv32-elf/10.3.0/mext-dsp/libgcc.a(_si_to_df.o)
 .riscv.attributes
                0x0000000000000466       0x38 /cygdrive/c/TelinkIoTStudio/RDS/V5.1.2/toolchains/nds32le-elf-mculib-v5f/bin/../lib/gcc/riscv32-elf/10.3.0/mext-dsp/libgcc.a(_compare_df.o)
 .riscv.attributes
                0x000000000000049e       0x38 /cygdrive/c/TelinkIoTStudio/RDS/V5.1.2/toolchains/nds32le-elf-mculib-v5f/bin/../lib/gcc/riscv32-elf/10.3.0/mext-dsp/libgcc.a(_unord_df.o)
 .riscv.attributes
                0x00000000000004d6       0x3a /cygdrive/c/TelinkIoTStudio/RDS/V5.1.2/toolchains/nds32le-elf-mculib-v5f/bin/../lib/gcc/riscv32-elf/10.3.0/mext-dsp/libgcc.a(_clzsi2.o)
 .riscv.attributes
                0x0000000000000510       0x38 /cygdrive/c/TelinkIoTStudio/RDS/V5.1.2/toolchains/nds32le-elf-mculib-v5f/bin/../lib/gcc/riscv32-elf/10.3.0/mext-dsp/libgcc.a(save-restore.o)
 .riscv.attributes
                0x0000000000000548       0x3a /cygdrive/c/TelinkIoTStudio/RDS/V5.1.2/toolchains/nds32le-elf-mculib-v5f/bin/../lib/gcc/riscv32-elf/10.3.0/mext-dsp/libgcc.a(_clz.o)
 .riscv.attributes
                0x0000000000000582       0x38 /cygdrive/c/TelinkIoTStudio/RDS/V5.1.2/toolchains/nds32le-elf-mculib-v5f/bin/../lib/gcc/riscv32-elf/10.3.0/mext-dsp/libgcc.a(_sf_to_df.o)
 .riscv.attributes
                0x00000000000005ba       0x38 /cygdrive/c/TelinkIoTStudio/RDS/V5.1.2/toolchains/nds32le-elf-mculib-v5f/bin/../lib/gcc/riscv32-elf/10.3.0/mext-dsp/libgcc.a(_df_to_sf.o)
 .riscv.attributes
                0x00000000000005f2       0x38 /cygdrive/c/TelinkIoTStudio/RDS/V5.1.2/toolchains/nds32le-elf-mculib-v5f/bin/../lib/gcc/riscv32-elf/10.3.0/mext-dsp/libgcc.a(_fixunsdfsi.o)
 .riscv.attributes
                0x000000000000062a       0x35 C:\TelinkIoTStudio\RDS\V5.1.2\toolchains\nds32le-elf-mculib-v5f\riscv32-elf\lib/libc.a(lib_a-errno.o)
 .riscv.attributes
                0x000000000000065f       0x35 C:\TelinkIoTStudio\RDS\V5.1.2\toolchains\nds32le-elf-mculib-v5f\riscv32-elf\lib/libc.a(lib_a-printf.o)
 .riscv.attributes
                0x0000000000000694       0x35 C:\TelinkIoTStudio\RDS\V5.1.2\toolchains\nds32le-elf-mculib-v5f\riscv32-elf\lib/libc.a(lib_a-vprintf.o)
 .riscv.attributes
                0x00000000000006c9       0x35 C:\TelinkIoTStudio\RDS\V5.1.2\toolchains\nds32le-elf-mculib-v5f\riscv32-elf\lib/libc.a(lib_a-printf_data.o)
 .riscv.attributes
                0x00000000000006fe       0x35 C:\TelinkIoTStudio\RDS\V5.1.2\toolchains\nds32le-elf-mculib-v5f\riscv32-elf\lib/libc.a(lib_a-printf_impl.o)
 .riscv.attributes
                0x0000000000000733       0x35 C:\TelinkIoTStudio\RDS\V5.1.2\toolchains\nds32le-elf-mculib-v5f\riscv32-elf\lib/libc.a(lib_a-printf_impl_float.o)
 .riscv.attributes
                0x0000000000000768       0x35 C:\TelinkIoTStudio\RDS\V5.1.2\toolchains\nds32le-elf-mculib-v5f\riscv32-elf\lib/libc.a(lib_a-strnlen.o)

.debug_line     0x0000000000000000     0x20fb
 .debug_line    0x0000000000000000      0x4e9 /cygdrive/c/TelinkIoTStudio/RDS/V5.1.2/toolchains/nds32le-elf-mculib-v5f/bin/../lib/gcc/riscv32-elf/10.3.0/mext-dsp/libgcc.a(_addsub_df.o)
 .debug_line    0x00000000000004e9      0x5f1 /cygdrive/c/TelinkIoTStudio/RDS/V5.1.2/toolchains/nds32le-elf-mculib-v5f/bin/../lib/gcc/riscv32-elf/10.3.0/mext-dsp/libgcc.a(_mul_df.o)
 .debug_line    0x0000000000000ada      0x897 /cygdrive/c/TelinkIoTStudio/RDS/V5.1.2/toolchains/nds32le-elf-mculib-v5f/bin/../lib/gcc/riscv32-elf/10.3.0/mext-dsp/libgcc.a(_div_df.o)
 .debug_line    0x0000000000001371      0x1d7 /cygdrive/c/TelinkIoTStudio/RDS/V5.1.2/toolchains/nds32le-elf-mculib-v5f/bin/../lib/gcc/riscv32-elf/10.3.0/mext-dsp/libgcc.a(_si_to_df.o)
 .debug_line    0x0000000000001548      0x1bf /cygdrive/c/TelinkIoTStudio/RDS/V5.1.2/toolchains/nds32le-elf-mculib-v5f/bin/../lib/gcc/riscv32-elf/10.3.0/mext-dsp/libgcc.a(_compare_df.o)
 .debug_line    0x0000000000001707       0xf9 /cygdrive/c/TelinkIoTStudio/RDS/V5.1.2/toolchains/nds32le-elf-mculib-v5f/bin/../lib/gcc/riscv32-elf/10.3.0/mext-dsp/libgcc.a(_unord_df.o)
 .debug_line    0x0000000000001800      0x18c /cygdrive/c/TelinkIoTStudio/RDS/V5.1.2/toolchains/nds32le-elf-mculib-v5f/bin/../lib/gcc/riscv32-elf/10.3.0/mext-dsp/libgcc.a(_clzsi2.o)
 .debug_line    0x000000000000198c      0x1c6 /cygdrive/c/TelinkIoTStudio/RDS/V5.1.2/toolchains/nds32le-elf-mculib-v5f/bin/../lib/gcc/riscv32-elf/10.3.0/mext-dsp/libgcc.a(save-restore.o)
 .debug_line    0x0000000000001b52       0x9c /cygdrive/c/TelinkIoTStudio/RDS/V5.1.2/toolchains/nds32le-elf-mculib-v5f/bin/../lib/gcc/riscv32-elf/10.3.0/mext-dsp/libgcc.a(_clz.o)
 .debug_line    0x0000000000001bee      0x16b /cygdrive/c/TelinkIoTStudio/RDS/V5.1.2/toolchains/nds32le-elf-mculib-v5f/bin/../lib/gcc/riscv32-elf/10.3.0/mext-dsp/libgcc.a(_sf_to_df.o)
 .debug_line    0x0000000000001d59      0x23d /cygdrive/c/TelinkIoTStudio/RDS/V5.1.2/toolchains/nds32le-elf-mculib-v5f/bin/../lib/gcc/riscv32-elf/10.3.0/mext-dsp/libgcc.a(_df_to_sf.o)
 .debug_line    0x0000000000001f96      0x165 /cygdrive/c/TelinkIoTStudio/RDS/V5.1.2/toolchains/nds32le-elf-mculib-v5f/bin/../lib/gcc/riscv32-elf/10.3.0/mext-dsp/libgcc.a(_fixunsdfsi.o)

.debug_info     0x0000000000000000      0x3af
 .debug_info    0x0000000000000000       0x26 /cygdrive/c/TelinkIoTStudio/RDS/V5.1.2/toolchains/nds32le-elf-mculib-v5f/bin/../lib/gcc/riscv32-elf/10.3.0/mext-dsp/libgcc.a(_addsub_df.o)
 .debug_info    0x0000000000000026       0x26 /cygdrive/c/TelinkIoTStudio/RDS/V5.1.2/toolchains/nds32le-elf-mculib-v5f/bin/../lib/gcc/riscv32-elf/10.3.0/mext-dsp/libgcc.a(_mul_df.o)
 .debug_info    0x000000000000004c       0x26 /cygdrive/c/TelinkIoTStudio/RDS/V5.1.2/toolchains/nds32le-elf-mculib-v5f/bin/../lib/gcc/riscv32-elf/10.3.0/mext-dsp/libgcc.a(_div_df.o)
 .debug_info    0x0000000000000072       0x26 /cygdrive/c/TelinkIoTStudio/RDS/V5.1.2/toolchains/nds32le-elf-mculib-v5f/bin/../lib/gcc/riscv32-elf/10.3.0/mext-dsp/libgcc.a(_si_to_df.o)
 .debug_info    0x0000000000000098       0x26 /cygdrive/c/TelinkIoTStudio/RDS/V5.1.2/toolchains/nds32le-elf-mculib-v5f/bin/../lib/gcc/riscv32-elf/10.3.0/mext-dsp/libgcc.a(_compare_df.o)
 .debug_info    0x00000000000000be       0x26 /cygdrive/c/TelinkIoTStudio/RDS/V5.1.2/toolchains/nds32le-elf-mculib-v5f/bin/../lib/gcc/riscv32-elf/10.3.0/mext-dsp/libgcc.a(_unord_df.o)
 .debug_info    0x00000000000000e4      0x14e /cygdrive/c/TelinkIoTStudio/RDS/V5.1.2/toolchains/nds32le-elf-mculib-v5f/bin/../lib/gcc/riscv32-elf/10.3.0/mext-dsp/libgcc.a(_clzsi2.o)
 .debug_info    0x0000000000000232       0x26 /cygdrive/c/TelinkIoTStudio/RDS/V5.1.2/toolchains/nds32le-elf-mculib-v5f/bin/../lib/gcc/riscv32-elf/10.3.0/mext-dsp/libgcc.a(save-restore.o)
 .debug_info    0x0000000000000258       0xe5 /cygdrive/c/TelinkIoTStudio/RDS/V5.1.2/toolchains/nds32le-elf-mculib-v5f/bin/../lib/gcc/riscv32-elf/10.3.0/mext-dsp/libgcc.a(_clz.o)
 .debug_info    0x000000000000033d       0x26 /cygdrive/c/TelinkIoTStudio/RDS/V5.1.2/toolchains/nds32le-elf-mculib-v5f/bin/../lib/gcc/riscv32-elf/10.3.0/mext-dsp/libgcc.a(_sf_to_df.o)
 .debug_info    0x0000000000000363       0x26 /cygdrive/c/TelinkIoTStudio/RDS/V5.1.2/toolchains/nds32le-elf-mculib-v5f/bin/../lib/gcc/riscv32-elf/10.3.0/mext-dsp/libgcc.a(_df_to_sf.o)
 .debug_info    0x0000000000000389       0x26 /cygdrive/c/TelinkIoTStudio/RDS/V5.1.2/toolchains/nds32le-elf-mculib-v5f/bin/../lib/gcc/riscv32-elf/10.3.0/mext-dsp/libgcc.a(_fixunsdfsi.o)

.debug_abbrev   0x0000000000000000      0x1f1
 .debug_abbrev  0x0000000000000000       0x14 /cygdrive/c/TelinkIoTStudio/RDS/V5.1.2/toolchains/nds32le-elf-mculib-v5f/bin/../lib/gcc/riscv32-elf/10.3.0/mext-dsp/libgcc.a(_addsub_df.o)
 .debug_abbrev  0x0000000000000014       0x14 /cygdrive/c/TelinkIoTStudio/RDS/V5.1.2/toolchains/nds32le-elf-mculib-v5f/bin/../lib/gcc/riscv32-elf/10.3.0/mext-dsp/libgcc.a(_mul_df.o)
 .debug_abbrev  0x0000000000000028       0x14 /cygdrive/c/TelinkIoTStudio/RDS/V5.1.2/toolchains/nds32le-elf-mculib-v5f/bin/../lib/gcc/riscv32-elf/10.3.0/mext-dsp/libgcc.a(_div_df.o)
 .debug_abbrev  0x000000000000003c       0x14 /cygdrive/c/TelinkIoTStudio/RDS/V5.1.2/toolchains/nds32le-elf-mculib-v5f/bin/../lib/gcc/riscv32-elf/10.3.0/mext-dsp/libgcc.a(_si_to_df.o)
 .debug_abbrev  0x0000000000000050       0x14 /cygdrive/c/TelinkIoTStudio/RDS/V5.1.2/toolchains/nds32le-elf-mculib-v5f/bin/../lib/gcc/riscv32-elf/10.3.0/mext-dsp/libgcc.a(_compare_df.o)
 .debug_abbrev  0x0000000000000064       0x14 /cygdrive/c/TelinkIoTStudio/RDS/V5.1.2/toolchains/nds32le-elf-mculib-v5f/bin/../lib/gcc/riscv32-elf/10.3.0/mext-dsp/libgcc.a(_unord_df.o)
 .debug_abbrev  0x0000000000000078       0xb9 /cygdrive/c/TelinkIoTStudio/RDS/V5.1.2/toolchains/nds32le-elf-mculib-v5f/bin/../lib/gcc/riscv32-elf/10.3.0/mext-dsp/libgcc.a(_clzsi2.o)
 .debug_abbrev  0x0000000000000131       0x14 /cygdrive/c/TelinkIoTStudio/RDS/V5.1.2/toolchains/nds32le-elf-mculib-v5f/bin/../lib/gcc/riscv32-elf/10.3.0/mext-dsp/libgcc.a(save-restore.o)
 .debug_abbrev  0x0000000000000145       0x70 /cygdrive/c/TelinkIoTStudio/RDS/V5.1.2/toolchains/nds32le-elf-mculib-v5f/bin/../lib/gcc/riscv32-elf/10.3.0/mext-dsp/libgcc.a(_clz.o)
 .debug_abbrev  0x00000000000001b5       0x14 /cygdrive/c/TelinkIoTStudio/RDS/V5.1.2/toolchains/nds32le-elf-mculib-v5f/bin/../lib/gcc/riscv32-elf/10.3.0/mext-dsp/libgcc.a(_sf_to_df.o)
 .debug_abbrev  0x00000000000001c9       0x14 /cygdrive/c/TelinkIoTStudio/RDS/V5.1.2/toolchains/nds32le-elf-mculib-v5f/bin/../lib/gcc/riscv32-elf/10.3.0/mext-dsp/libgcc.a(_df_to_sf.o)
 .debug_abbrev  0x00000000000001dd       0x14 /cygdrive/c/TelinkIoTStudio/RDS/V5.1.2/toolchains/nds32le-elf-mculib-v5f/bin/../lib/gcc/riscv32-elf/10.3.0/mext-dsp/libgcc.a(_fixunsdfsi.o)

.debug_aranges  0x0000000000000000      0x178
 .debug_aranges
                0x0000000000000000       0x20 /cygdrive/c/TelinkIoTStudio/RDS/V5.1.2/toolchains/nds32le-elf-mculib-v5f/bin/../lib/gcc/riscv32-elf/10.3.0/mext-dsp/libgcc.a(_addsub_df.o)
 .debug_aranges
                0x0000000000000020       0x20 /cygdrive/c/TelinkIoTStudio/RDS/V5.1.2/toolchains/nds32le-elf-mculib-v5f/bin/../lib/gcc/riscv32-elf/10.3.0/mext-dsp/libgcc.a(_mul_df.o)
 .debug_aranges
                0x0000000000000040       0x20 /cygdrive/c/TelinkIoTStudio/RDS/V5.1.2/toolchains/nds32le-elf-mculib-v5f/bin/../lib/gcc/riscv32-elf/10.3.0/mext-dsp/libgcc.a(_div_df.o)
 .debug_aranges
                0x0000000000000060       0x20 /cygdrive/c/TelinkIoTStudio/RDS/V5.1.2/toolchains/nds32le-elf-mculib-v5f/bin/../lib/gcc/riscv32-elf/10.3.0/mext-dsp/libgcc.a(_si_to_df.o)
 .debug_aranges
                0x0000000000000080       0x20 /cygdrive/c/TelinkIoTStudio/RDS/V5.1.2/toolchains/nds32le-elf-mculib-v5f/bin/../lib/gcc/riscv32-elf/10.3.0/mext-dsp/libgcc.a(_compare_df.o)
 .debug_aranges
                0x00000000000000a0       0x20 /cygdrive/c/TelinkIoTStudio/RDS/V5.1.2/toolchains/nds32le-elf-mculib-v5f/bin/../lib/gcc/riscv32-elf/10.3.0/mext-dsp/libgcc.a(_unord_df.o)
 .debug_aranges
                0x00000000000000c0       0x20 /cygdrive/c/TelinkIoTStudio/RDS/V5.1.2/toolchains/nds32le-elf-mculib-v5f/bin/../lib/gcc/riscv32-elf/10.3.0/mext-dsp/libgcc.a(_clzsi2.o)
 .debug_aranges
                0x00000000000000e0       0x20 /cygdrive/c/TelinkIoTStudio/RDS/V5.1.2/toolchains/nds32le-elf-mculib-v5f/bin/../lib/gcc/riscv32-elf/10.3.0/mext-dsp/libgcc.a(save-restore.o)
 .debug_aranges
                0x0000000000000100       0x18 /cygdrive/c/TelinkIoTStudio/RDS/V5.1.2/toolchains/nds32le-elf-mculib-v5f/bin/../lib/gcc/riscv32-elf/10.3.0/mext-dsp/libgcc.a(_clz.o)
 .debug_aranges
                0x0000000000000118       0x20 /cygdrive/c/TelinkIoTStudio/RDS/V5.1.2/toolchains/nds32le-elf-mculib-v5f/bin/../lib/gcc/riscv32-elf/10.3.0/mext-dsp/libgcc.a(_sf_to_df.o)
 .debug_aranges
                0x0000000000000138       0x20 /cygdrive/c/TelinkIoTStudio/RDS/V5.1.2/toolchains/nds32le-elf-mculib-v5f/bin/../lib/gcc/riscv32-elf/10.3.0/mext-dsp/libgcc.a(_df_to_sf.o)
 .debug_aranges
                0x0000000000000158       0x20 /cygdrive/c/TelinkIoTStudio/RDS/V5.1.2/toolchains/nds32le-elf-mculib-v5f/bin/../lib/gcc/riscv32-elf/10.3.0/mext-dsp/libgcc.a(_fixunsdfsi.o)

.debug_str      0x0000000000000000      0x3c3
 .debug_str     0x0000000000000000      0x12d /cygdrive/c/TelinkIoTStudio/RDS/V5.1.2/toolchains/nds32le-elf-mculib-v5f/bin/../lib/gcc/riscv32-elf/10.3.0/mext-dsp/libgcc.a(_addsub_df.o)
 .debug_str     0x000000000000012d      0x12d /cygdrive/c/TelinkIoTStudio/RDS/V5.1.2/toolchains/nds32le-elf-mculib-v5f/bin/../lib/gcc/riscv32-elf/10.3.0/mext-dsp/libgcc.a(_mul_df.o)
 .debug_str     0x000000000000012d      0x12d /cygdrive/c/TelinkIoTStudio/RDS/V5.1.2/toolchains/nds32le-elf-mculib-v5f/bin/../lib/gcc/riscv32-elf/10.3.0/mext-dsp/libgcc.a(_div_df.o)
 .debug_str     0x000000000000012d      0x12d /cygdrive/c/TelinkIoTStudio/RDS/V5.1.2/toolchains/nds32le-elf-mculib-v5f/bin/../lib/gcc/riscv32-elf/10.3.0/mext-dsp/libgcc.a(_si_to_df.o)
 .debug_str     0x000000000000012d      0x12d /cygdrive/c/TelinkIoTStudio/RDS/V5.1.2/toolchains/nds32le-elf-mculib-v5f/bin/../lib/gcc/riscv32-elf/10.3.0/mext-dsp/libgcc.a(_compare_df.o)
 .debug_str     0x000000000000012d      0x12d /cygdrive/c/TelinkIoTStudio/RDS/V5.1.2/toolchains/nds32le-elf-mculib-v5f/bin/../lib/gcc/riscv32-elf/10.3.0/mext-dsp/libgcc.a(_unord_df.o)
 .debug_str     0x000000000000012d      0x215 /cygdrive/c/TelinkIoTStudio/RDS/V5.1.2/toolchains/nds32le-elf-mculib-v5f/bin/../lib/gcc/riscv32-elf/10.3.0/mext-dsp/libgcc.a(_clzsi2.o)
                                        0x310 (size before relaxing)
 .debug_str     0x0000000000000342       0x81 /cygdrive/c/TelinkIoTStudio/RDS/V5.1.2/toolchains/nds32le-elf-mculib-v5f/bin/../lib/gcc/riscv32-elf/10.3.0/mext-dsp/libgcc.a(save-restore.o)
                                        0x128 (size before relaxing)
 .debug_str     0x00000000000003c3      0x2f3 /cygdrive/c/TelinkIoTStudio/RDS/V5.1.2/toolchains/nds32le-elf-mculib-v5f/bin/../lib/gcc/riscv32-elf/10.3.0/mext-dsp/libgcc.a(_clz.o)
 .debug_str     0x00000000000003c3      0x12d /cygdrive/c/TelinkIoTStudio/RDS/V5.1.2/toolchains/nds32le-elf-mculib-v5f/bin/../lib/gcc/riscv32-elf/10.3.0/mext-dsp/libgcc.a(_sf_to_df.o)
 .debug_str     0x00000000000003c3      0x12d /cygdrive/c/TelinkIoTStudio/RDS/V5.1.2/toolchains/nds32le-elf-mculib-v5f/bin/../lib/gcc/riscv32-elf/10.3.0/mext-dsp/libgcc.a(_df_to_sf.o)
 .debug_str     0x00000000000003c3      0x12d /cygdrive/c/TelinkIoTStudio/RDS/V5.1.2/toolchains/nds32le-elf-mculib-v5f/bin/../lib/gcc/riscv32-elf/10.3.0/mext-dsp/libgcc.a(_fixunsdfsi.o)

.debug_loc      0x0000000000000000       0xd8
 .debug_loc     0x0000000000000000       0xd8 /cygdrive/c/TelinkIoTStudio/RDS/V5.1.2/toolchains/nds32le-elf-mculib-v5f/bin/../lib/gcc/riscv32-elf/10.3.0/mext-dsp/libgcc.a(_clzsi2.o)

.debug_ranges   0x0000000000000000       0x30
 .debug_ranges  0x0000000000000000       0x30 /cygdrive/c/TelinkIoTStudio/RDS/V5.1.2/toolchains/nds32le-elf-mculib-v5f/bin/../lib/gcc/riscv32-elf/10.3.0/mext-dsp/libgcc.a(_clzsi2.o)

.debug_frame    0x0000000000000000       0x20
 .debug_frame   0x0000000000000000       0x20 /cygdrive/c/TelinkIoTStudio/RDS/V5.1.2/toolchains/nds32le-elf-mculib-v5f/bin/../lib/gcc/riscv32-elf/10.3.0/mext-dsp/libgcc.a(_clzsi2.o)
