Archive member included to satisfy reference by file (symbol)

../../../platform/lib/libdrivers_b92.a(adc.o)
                              ./proj/drivers/drv_adc.o (symbol from plugin) (adc_set_dma_config)
../../../platform/lib/libdrivers_b92.a(aes.o)
                              ./proj/drivers/drv_security.o (symbol from plugin) (aes_encrypt)
../../../platform/lib/libdrivers_b92.a(analog.o)
                              ./proj/drivers/drv_adc.o (symbol from plugin) (analog_read_reg8)
../../../platform/lib/libdrivers_b92.a(audio.o)
                              adc.o (symbol from plugin) (audio_data_fifo_input_path_sel)
../../../platform/lib/libdrivers_b92.a(clock.o)
                              ./proj/drivers/drv_hw.o (symbol from plugin) (sys_clk)
../../../platform/lib/libdrivers_b92.a(flash.o)
                              ./proj/drivers/drv_flash.o (symbol from plugin) (flash_erase_sector)
../../../platform/lib/libdrivers_b92.a(gpio.o)
                              ./platform/chip_b92/i2c.o (symbol from plugin) (gpio_set_mux_function)
../../../platform/lib/libdrivers_b92.a(spi.o)
                              ./proj/drivers/drv_spi.o (symbol from plugin) (gspi_set_pin)
../../../platform/lib/libdrivers_b92.a(stimer.o)
                              ./proj/drivers/drv_keyboard.o (symbol from plugin) (delay_us)
../../../platform/lib/libdrivers_b92.a(timer.o)
                              ./proj/drivers/drv_timer.o (symbol from plugin) (timer_start)
../../../platform/lib/libdrivers_b92.a(uart.o)
                              ./proj/drivers/drv_uart.o (symbol from plugin) (uart_init)
../../../platform/lib/libdrivers_b92.a(watchdog.o)
                              ./proj/drivers/drv_hw.o (symbol from plugin) (wd_32k_stop)
../../../platform/lib/libdrivers_b92.a(flash_base.o)
                              flash.o (symbol from plugin) (flash_mspi_read_ram)
../../../platform/lib/libdrivers_b92.a(plic.o)
                              flash.o (symbol from plugin) (plic_enter_critical_sec)
../../../platform/lib/libdrivers_b92.a(pm.o)
                              ./platform/boot/b92/cstartup_b92.o (pm_retention_register_recover)
../../../platform/lib/libdrivers_b92.a(rf.o)
                              ./proj/drivers/drv_hw.o (symbol from plugin) (rf_mode_init)
../../../platform/lib/libdrivers_b92.a(sys.o)
                              ./platform/chip_b92/error_handler/error_handler.o (symbol from plugin) (sys_reboot_ram)
../../../platform/lib/libdrivers_b92.a(trng.o)
                              ./proj/drivers/drv_hw.o (symbol from plugin) (trng_init)
../../../platform/lib/libdrivers_b92.a(ext_pm.o)
                              ./proj/drivers/drv_hw.o (symbol from plugin) (sys_init)
../../../platform/lib/libdrivers_b92.a(ext_pm_32k_rc.o)
                              ext_pm.o (symbol from plugin) (cpu_sleep_wakeup_32k_rc)
../../../platform/lib/libdrivers_b92.a(ext_pm_32k_xtal.o)
                              ext_pm.o (symbol from plugin) (cpu_sleep_wakeup_32k_xtal)
../../../platform/lib/libdrivers_b92.a(core.o)
                              rf.o (symbol from plugin) (core_cclk_delay_tick)
../../../platform/lib/libdrivers_b92.a(mspi.o)
                              flash_base.o (symbol from plugin) (mspi_write)
/cygdrive/c/TelinkIoTStudio/RDS/V5.1.2/toolchains/nds32le-elf-mculib-v5f/bin/../lib/gcc/riscv32-elf/10.3.0/../../../../riscv32-elf/lib/mext-dsp/libc.a(lib_a-snprintf.o)
                              ./proj/common/utility.o (symbol from plugin) (snprintf)
/cygdrive/c/TelinkIoTStudio/RDS/V5.1.2/toolchains/nds32le-elf-mculib-v5f/bin/../lib/gcc/riscv32-elf/10.3.0/../../../../riscv32-elf/lib/mext-dsp/libc.a(lib_a-vsnprintf.o)
                              /cygdrive/c/TelinkIoTStudio/RDS/V5.1.2/toolchains/nds32le-elf-mculib-v5f/bin/../lib/gcc/riscv32-elf/10.3.0/../../../../riscv32-elf/lib/mext-dsp/libc.a(lib_a-snprintf.o) (vsnprintf)
/cygdrive/c/TelinkIoTStudio/RDS/V5.1.2/toolchains/nds32le-elf-mculib-v5f/bin/../lib/gcc/riscv32-elf/10.3.0/../../../../riscv32-elf/lib/mext-dsp/libc.a(lib_a-printf_data.o)
                              /cygdrive/c/TelinkIoTStudio/RDS/V5.1.2/toolchains/nds32le-elf-mculib-v5f/bin/../lib/gcc/riscv32-elf/10.3.0/../../../../riscv32-elf/lib/mext-dsp/libc.a(lib_a-vsnprintf.o) (__printf_count)
/cygdrive/c/TelinkIoTStudio/RDS/V5.1.2/toolchains/nds32le-elf-mculib-v5f/bin/../lib/gcc/riscv32-elf/10.3.0/../../../../riscv32-elf/lib/mext-dsp/libc.a(lib_a-printf_impl.o)
                              /cygdrive/c/TelinkIoTStudio/RDS/V5.1.2/toolchains/nds32le-elf-mculib-v5f/bin/../lib/gcc/riscv32-elf/10.3.0/../../../../riscv32-elf/lib/mext-dsp/libc.a(lib_a-vsnprintf.o) (__printf_impl)
/cygdrive/c/TelinkIoTStudio/RDS/V5.1.2/toolchains/nds32le-elf-mculib-v5f/bin/../lib/gcc/riscv32-elf/10.3.0/../../../../riscv32-elf/lib/mext-dsp/libc.a(lib_a-printf_impl_float.o)
                              /cygdrive/c/TelinkIoTStudio/RDS/V5.1.2/toolchains/nds32le-elf-mculib-v5f/bin/../lib/gcc/riscv32-elf/10.3.0/../../../../riscv32-elf/lib/mext-dsp/libc.a(lib_a-printf_impl.o) (__int_to_poly)
/cygdrive/c/TelinkIoTStudio/RDS/V5.1.2/toolchains/nds32le-elf-mculib-v5f/bin/../lib/gcc/riscv32-elf/10.3.0/../../../../riscv32-elf/lib/mext-dsp/libc.a(lib_a-strnlen.o)
                              /cygdrive/c/TelinkIoTStudio/RDS/V5.1.2/toolchains/nds32le-elf-mculib-v5f/bin/../lib/gcc/riscv32-elf/10.3.0/../../../../riscv32-elf/lib/mext-dsp/libc.a(lib_a-printf_impl.o) (strnlen)
/cygdrive/c/TelinkIoTStudio/RDS/V5.1.2/toolchains/nds32le-elf-mculib-v5f/bin/../lib/gcc/riscv32-elf/10.3.0/mext-dsp/libgcc.a(_lshrdi3.o)
                              /cygdrive/c/TelinkIoTStudio/RDS/V5.1.2/toolchains/nds32le-elf-mculib-v5f/bin/../lib/gcc/riscv32-elf/10.3.0/../../../../riscv32-elf/lib/mext-dsp/libc.a(lib_a-printf_impl_float.o) (__lshrdi3)
/cygdrive/c/TelinkIoTStudio/RDS/V5.1.2/toolchains/nds32le-elf-mculib-v5f/bin/../lib/gcc/riscv32-elf/10.3.0/mext-dsp/libgcc.a(_ashldi3.o)
                              /cygdrive/c/TelinkIoTStudio/RDS/V5.1.2/toolchains/nds32le-elf-mculib-v5f/bin/../lib/gcc/riscv32-elf/10.3.0/../../../../riscv32-elf/lib/mext-dsp/libc.a(lib_a-printf_impl_float.o) (__ashldi3)
/cygdrive/c/TelinkIoTStudio/RDS/V5.1.2/toolchains/nds32le-elf-mculib-v5f/bin/../lib/gcc/riscv32-elf/10.3.0/mext-dsp/libgcc.a(save-restore.o)
                              /cygdrive/c/TelinkIoTStudio/RDS/V5.1.2/toolchains/nds32le-elf-mculib-v5f/bin/../lib/gcc/riscv32-elf/10.3.0/../../../../riscv32-elf/lib/mext-dsp/libc.a(lib_a-printf_impl.o) (__riscv_save_12)

Discarded input sections

 .data          0x0000000000000000        0x0 /cygdrive/c/Users/fwteam/AppData/Local/Temp/bootloader_b92.elf.rcWSid.ltrans0.ltrans.o
 .bss           0x0000000000000000        0x0 /cygdrive/c/Users/fwteam/AppData/Local/Temp/bootloader_b92.elf.rcWSid.ltrans0.ltrans.o
 .text.strcpy   0x0000000000000000       0x18 /cygdrive/c/Users/fwteam/AppData/Local/Temp/bootloader_b92.elf.rcWSid.ltrans0.ltrans.o
 .text._write   0x0000000000000000        0x8 /cygdrive/c/Users/fwteam/AppData/Local/Temp/bootloader_b92.elf.rcWSid.ltrans0.ltrans.o
 .bss.T_rfStatusDbg
                0x0000000000000000      0x100 /cygdrive/c/Users/fwteam/AppData/Local/Temp/bootloader_b92.elf.rcWSid.ltrans0.ltrans.o
 .bss.T_DBG_testIrq
                0x0000000000000000       0x10 /cygdrive/c/Users/fwteam/AppData/Local/Temp/bootloader_b92.elf.rcWSid.ltrans0.ltrans.o
 .sbss.g_adc_pre_scale
                0x0000000000000000        0x1 /cygdrive/c/Users/fwteam/AppData/Local/Temp/bootloader_b92.elf.rcWSid.ltrans0.ltrans.o
 .sbss.g_adc_vbat_divider
                0x0000000000000000        0x1 /cygdrive/c/Users/fwteam/AppData/Local/Temp/bootloader_b92.elf.rcWSid.ltrans0.ltrans.o
 .sdata.g_pm_early_wakeup_time_us
                0x0000000000000000        0x8 /cygdrive/c/Users/fwteam/AppData/Local/Temp/bootloader_b92.elf.rcWSid.ltrans0.ltrans.o
 .sdata.g_pm_r_delay_cycle
                0x0000000000000000        0x8 /cygdrive/c/Users/fwteam/AppData/Local/Temp/bootloader_b92.elf.rcWSid.ltrans0.ltrans.o
 .data.rf_power_Level_list
                0x0000000000000000       0xf0 /cygdrive/c/Users/fwteam/AppData/Local/Temp/bootloader_b92.elf.rcWSid.ltrans0.ltrans.o
 .sbss.g_single_tong_freqoffset
                0x0000000000000000        0x1 /cygdrive/c/Users/fwteam/AppData/Local/Temp/bootloader_b92.elf.rcWSid.ltrans0.ltrans.o
 .data          0x0000000000000000        0x0 ./platform/boot/b92/cstartup_b92.o
 .bss           0x0000000000000000        0x0 ./platform/boot/b92/cstartup_b92.o
 .text          0x0000000000000000        0x0 ./platform/boot/link_cfg.o
 .data          0x0000000000000000        0x0 ./platform/boot/link_cfg.o
 .bss           0x0000000000000000        0x0 ./platform/boot/link_cfg.o
 .riscv.attributes
                0x0000000000000000       0x33 ./platform/boot/link_cfg.o
 .text          0x0000000000000000        0x0 /cygdrive/c/TelinkIoTStudio/RDS/V5.1.2/toolchains/nds32le-elf-mculib-v5f/bin/../lib/gcc/riscv32-elf/10.3.0/../../../../riscv32-elf/lib/mext-dsp/libc.a(lib_a-snprintf.o)
 .data          0x0000000000000000        0x0 /cygdrive/c/TelinkIoTStudio/RDS/V5.1.2/toolchains/nds32le-elf-mculib-v5f/bin/../lib/gcc/riscv32-elf/10.3.0/../../../../riscv32-elf/lib/mext-dsp/libc.a(lib_a-snprintf.o)
 .bss           0x0000000000000000        0x0 /cygdrive/c/TelinkIoTStudio/RDS/V5.1.2/toolchains/nds32le-elf-mculib-v5f/bin/../lib/gcc/riscv32-elf/10.3.0/../../../../riscv32-elf/lib/mext-dsp/libc.a(lib_a-snprintf.o)
 .text.snprintf
                0x0000000000000000       0x20 /cygdrive/c/TelinkIoTStudio/RDS/V5.1.2/toolchains/nds32le-elf-mculib-v5f/bin/../lib/gcc/riscv32-elf/10.3.0/../../../../riscv32-elf/lib/mext-dsp/libc.a(lib_a-snprintf.o)
 .comment       0x0000000000000000       0x3d /cygdrive/c/TelinkIoTStudio/RDS/V5.1.2/toolchains/nds32le-elf-mculib-v5f/bin/../lib/gcc/riscv32-elf/10.3.0/../../../../riscv32-elf/lib/mext-dsp/libc.a(lib_a-snprintf.o)
 .riscv.attributes
                0x0000000000000000       0x3a /cygdrive/c/TelinkIoTStudio/RDS/V5.1.2/toolchains/nds32le-elf-mculib-v5f/bin/../lib/gcc/riscv32-elf/10.3.0/../../../../riscv32-elf/lib/mext-dsp/libc.a(lib_a-snprintf.o)
 .text          0x0000000000000000        0x0 /cygdrive/c/TelinkIoTStudio/RDS/V5.1.2/toolchains/nds32le-elf-mculib-v5f/bin/../lib/gcc/riscv32-elf/10.3.0/../../../../riscv32-elf/lib/mext-dsp/libc.a(lib_a-vsnprintf.o)
 .data          0x0000000000000000        0x0 /cygdrive/c/TelinkIoTStudio/RDS/V5.1.2/toolchains/nds32le-elf-mculib-v5f/bin/../lib/gcc/riscv32-elf/10.3.0/../../../../riscv32-elf/lib/mext-dsp/libc.a(lib_a-vsnprintf.o)
 .bss           0x0000000000000000        0x0 /cygdrive/c/TelinkIoTStudio/RDS/V5.1.2/toolchains/nds32le-elf-mculib-v5f/bin/../lib/gcc/riscv32-elf/10.3.0/../../../../riscv32-elf/lib/mext-dsp/libc.a(lib_a-vsnprintf.o)
 .text.__vsnprintf_help
                0x0000000000000000       0x2e /cygdrive/c/TelinkIoTStudio/RDS/V5.1.2/toolchains/nds32le-elf-mculib-v5f/bin/../lib/gcc/riscv32-elf/10.3.0/../../../../riscv32-elf/lib/mext-dsp/libc.a(lib_a-vsnprintf.o)
 .text.vsnprintf
                0x0000000000000000       0x54 /cygdrive/c/TelinkIoTStudio/RDS/V5.1.2/toolchains/nds32le-elf-mculib-v5f/bin/../lib/gcc/riscv32-elf/10.3.0/../../../../riscv32-elf/lib/mext-dsp/libc.a(lib_a-vsnprintf.o)
 .sbss.__vsprintf_buf_end
                0x0000000000000000        0x4 /cygdrive/c/TelinkIoTStudio/RDS/V5.1.2/toolchains/nds32le-elf-mculib-v5f/bin/../lib/gcc/riscv32-elf/10.3.0/../../../../riscv32-elf/lib/mext-dsp/libc.a(lib_a-vsnprintf.o)
 .sbss.__vsprintf_buf
                0x0000000000000000        0x4 /cygdrive/c/TelinkIoTStudio/RDS/V5.1.2/toolchains/nds32le-elf-mculib-v5f/bin/../lib/gcc/riscv32-elf/10.3.0/../../../../riscv32-elf/lib/mext-dsp/libc.a(lib_a-vsnprintf.o)
 .comment       0x0000000000000000       0x3d /cygdrive/c/TelinkIoTStudio/RDS/V5.1.2/toolchains/nds32le-elf-mculib-v5f/bin/../lib/gcc/riscv32-elf/10.3.0/../../../../riscv32-elf/lib/mext-dsp/libc.a(lib_a-vsnprintf.o)
 .riscv.attributes
                0x0000000000000000       0x3a /cygdrive/c/TelinkIoTStudio/RDS/V5.1.2/toolchains/nds32le-elf-mculib-v5f/bin/../lib/gcc/riscv32-elf/10.3.0/../../../../riscv32-elf/lib/mext-dsp/libc.a(lib_a-vsnprintf.o)
 .text          0x0000000000000000        0x0 /cygdrive/c/TelinkIoTStudio/RDS/V5.1.2/toolchains/nds32le-elf-mculib-v5f/bin/../lib/gcc/riscv32-elf/10.3.0/../../../../riscv32-elf/lib/mext-dsp/libc.a(lib_a-printf_data.o)
 .data          0x0000000000000000        0x0 /cygdrive/c/TelinkIoTStudio/RDS/V5.1.2/toolchains/nds32le-elf-mculib-v5f/bin/../lib/gcc/riscv32-elf/10.3.0/../../../../riscv32-elf/lib/mext-dsp/libc.a(lib_a-printf_data.o)
 .bss           0x0000000000000000        0x0 /cygdrive/c/TelinkIoTStudio/RDS/V5.1.2/toolchains/nds32le-elf-mculib-v5f/bin/../lib/gcc/riscv32-elf/10.3.0/../../../../riscv32-elf/lib/mext-dsp/libc.a(lib_a-printf_data.o)
 .rodata.__digits
                0x0000000000000000       0x10 /cygdrive/c/TelinkIoTStudio/RDS/V5.1.2/toolchains/nds32le-elf-mculib-v5f/bin/../lib/gcc/riscv32-elf/10.3.0/../../../../riscv32-elf/lib/mext-dsp/libc.a(lib_a-printf_data.o)
 .sbss.__printf_count
                0x0000000000000000        0x4 /cygdrive/c/TelinkIoTStudio/RDS/V5.1.2/toolchains/nds32le-elf-mculib-v5f/bin/../lib/gcc/riscv32-elf/10.3.0/../../../../riscv32-elf/lib/mext-dsp/libc.a(lib_a-printf_data.o)
 .comment       0x0000000000000000       0x3d /cygdrive/c/TelinkIoTStudio/RDS/V5.1.2/toolchains/nds32le-elf-mculib-v5f/bin/../lib/gcc/riscv32-elf/10.3.0/../../../../riscv32-elf/lib/mext-dsp/libc.a(lib_a-printf_data.o)
 .riscv.attributes
                0x0000000000000000       0x3a /cygdrive/c/TelinkIoTStudio/RDS/V5.1.2/toolchains/nds32le-elf-mculib-v5f/bin/../lib/gcc/riscv32-elf/10.3.0/../../../../riscv32-elf/lib/mext-dsp/libc.a(lib_a-printf_data.o)
 .text          0x0000000000000000        0x0 /cygdrive/c/TelinkIoTStudio/RDS/V5.1.2/toolchains/nds32le-elf-mculib-v5f/bin/../lib/gcc/riscv32-elf/10.3.0/../../../../riscv32-elf/lib/mext-dsp/libc.a(lib_a-printf_impl.o)
 .data          0x0000000000000000        0x0 /cygdrive/c/TelinkIoTStudio/RDS/V5.1.2/toolchains/nds32le-elf-mculib-v5f/bin/../lib/gcc/riscv32-elf/10.3.0/../../../../riscv32-elf/lib/mext-dsp/libc.a(lib_a-printf_impl.o)
 .bss           0x0000000000000000        0x0 /cygdrive/c/TelinkIoTStudio/RDS/V5.1.2/toolchains/nds32le-elf-mculib-v5f/bin/../lib/gcc/riscv32-elf/10.3.0/../../../../riscv32-elf/lib/mext-dsp/libc.a(lib_a-printf_impl.o)
 .text.__print_integral
                0x0000000000000000       0x60 /cygdrive/c/TelinkIoTStudio/RDS/V5.1.2/toolchains/nds32le-elf-mculib-v5f/bin/../lib/gcc/riscv32-elf/10.3.0/../../../../riscv32-elf/lib/mext-dsp/libc.a(lib_a-printf_impl.o)
 .text.__printf_impl
                0x0000000000000000      0x47a /cygdrive/c/TelinkIoTStudio/RDS/V5.1.2/toolchains/nds32le-elf-mculib-v5f/bin/../lib/gcc/riscv32-elf/10.3.0/../../../../riscv32-elf/lib/mext-dsp/libc.a(lib_a-printf_impl.o)
 .rodata.__printf_impl
                0x0000000000000000       0x84 /cygdrive/c/TelinkIoTStudio/RDS/V5.1.2/toolchains/nds32le-elf-mculib-v5f/bin/../lib/gcc/riscv32-elf/10.3.0/../../../../riscv32-elf/lib/mext-dsp/libc.a(lib_a-printf_impl.o)
 .comment       0x0000000000000000       0x3d /cygdrive/c/TelinkIoTStudio/RDS/V5.1.2/toolchains/nds32le-elf-mculib-v5f/bin/../lib/gcc/riscv32-elf/10.3.0/../../../../riscv32-elf/lib/mext-dsp/libc.a(lib_a-printf_impl.o)
 .riscv.attributes
                0x0000000000000000       0x3a /cygdrive/c/TelinkIoTStudio/RDS/V5.1.2/toolchains/nds32le-elf-mculib-v5f/bin/../lib/gcc/riscv32-elf/10.3.0/../../../../riscv32-elf/lib/mext-dsp/libc.a(lib_a-printf_impl.o)
 .text          0x0000000000000000        0x0 /cygdrive/c/TelinkIoTStudio/RDS/V5.1.2/toolchains/nds32le-elf-mculib-v5f/bin/../lib/gcc/riscv32-elf/10.3.0/../../../../riscv32-elf/lib/mext-dsp/libc.a(lib_a-printf_impl_float.o)
 .data          0x0000000000000000        0x0 /cygdrive/c/TelinkIoTStudio/RDS/V5.1.2/toolchains/nds32le-elf-mculib-v5f/bin/../lib/gcc/riscv32-elf/10.3.0/../../../../riscv32-elf/lib/mext-dsp/libc.a(lib_a-printf_impl_float.o)
 .bss           0x0000000000000000        0x0 /cygdrive/c/TelinkIoTStudio/RDS/V5.1.2/toolchains/nds32le-elf-mculib-v5f/bin/../lib/gcc/riscv32-elf/10.3.0/../../../../riscv32-elf/lib/mext-dsp/libc.a(lib_a-printf_impl_float.o)
 .text.__int_to_poly
                0x0000000000000000       0x20 /cygdrive/c/TelinkIoTStudio/RDS/V5.1.2/toolchains/nds32le-elf-mculib-v5f/bin/../lib/gcc/riscv32-elf/10.3.0/../../../../riscv32-elf/lib/mext-dsp/libc.a(lib_a-printf_impl_float.o)
 .text.__print_integral_poly
                0x0000000000000000       0x96 /cygdrive/c/TelinkIoTStudio/RDS/V5.1.2/toolchains/nds32le-elf-mculib-v5f/bin/../lib/gcc/riscv32-elf/10.3.0/../../../../riscv32-elf/lib/mext-dsp/libc.a(lib_a-printf_impl_float.o)
 .rodata.__printf_float_impl.str1.4
                0x0000000000000000        0x8 /cygdrive/c/TelinkIoTStudio/RDS/V5.1.2/toolchains/nds32le-elf-mculib-v5f/bin/../lib/gcc/riscv32-elf/10.3.0/../../../../riscv32-elf/lib/mext-dsp/libc.a(lib_a-printf_impl_float.o)
 .text.__printf_float_impl
                0x0000000000000000      0x45a /cygdrive/c/TelinkIoTStudio/RDS/V5.1.2/toolchains/nds32le-elf-mculib-v5f/bin/../lib/gcc/riscv32-elf/10.3.0/../../../../riscv32-elf/lib/mext-dsp/libc.a(lib_a-printf_impl_float.o)
 .comment       0x0000000000000000       0x3d /cygdrive/c/TelinkIoTStudio/RDS/V5.1.2/toolchains/nds32le-elf-mculib-v5f/bin/../lib/gcc/riscv32-elf/10.3.0/../../../../riscv32-elf/lib/mext-dsp/libc.a(lib_a-printf_impl_float.o)
 .riscv.attributes
                0x0000000000000000       0x3a /cygdrive/c/TelinkIoTStudio/RDS/V5.1.2/toolchains/nds32le-elf-mculib-v5f/bin/../lib/gcc/riscv32-elf/10.3.0/../../../../riscv32-elf/lib/mext-dsp/libc.a(lib_a-printf_impl_float.o)
 .text          0x0000000000000000        0x0 /cygdrive/c/TelinkIoTStudio/RDS/V5.1.2/toolchains/nds32le-elf-mculib-v5f/bin/../lib/gcc/riscv32-elf/10.3.0/../../../../riscv32-elf/lib/mext-dsp/libc.a(lib_a-strnlen.o)
 .data          0x0000000000000000        0x0 /cygdrive/c/TelinkIoTStudio/RDS/V5.1.2/toolchains/nds32le-elf-mculib-v5f/bin/../lib/gcc/riscv32-elf/10.3.0/../../../../riscv32-elf/lib/mext-dsp/libc.a(lib_a-strnlen.o)
 .bss           0x0000000000000000        0x0 /cygdrive/c/TelinkIoTStudio/RDS/V5.1.2/toolchains/nds32le-elf-mculib-v5f/bin/../lib/gcc/riscv32-elf/10.3.0/../../../../riscv32-elf/lib/mext-dsp/libc.a(lib_a-strnlen.o)
 .text.strnlen  0x0000000000000000       0x18 /cygdrive/c/TelinkIoTStudio/RDS/V5.1.2/toolchains/nds32le-elf-mculib-v5f/bin/../lib/gcc/riscv32-elf/10.3.0/../../../../riscv32-elf/lib/mext-dsp/libc.a(lib_a-strnlen.o)
 .comment       0x0000000000000000       0x3d /cygdrive/c/TelinkIoTStudio/RDS/V5.1.2/toolchains/nds32le-elf-mculib-v5f/bin/../lib/gcc/riscv32-elf/10.3.0/../../../../riscv32-elf/lib/mext-dsp/libc.a(lib_a-strnlen.o)
 .riscv.attributes
                0x0000000000000000       0x3a /cygdrive/c/TelinkIoTStudio/RDS/V5.1.2/toolchains/nds32le-elf-mculib-v5f/bin/../lib/gcc/riscv32-elf/10.3.0/../../../../riscv32-elf/lib/mext-dsp/libc.a(lib_a-strnlen.o)
 .text          0x0000000000000000       0x34 /cygdrive/c/TelinkIoTStudio/RDS/V5.1.2/toolchains/nds32le-elf-mculib-v5f/bin/../lib/gcc/riscv32-elf/10.3.0/mext-dsp/libgcc.a(_lshrdi3.o)
 .data          0x0000000000000000        0x0 /cygdrive/c/TelinkIoTStudio/RDS/V5.1.2/toolchains/nds32le-elf-mculib-v5f/bin/../lib/gcc/riscv32-elf/10.3.0/mext-dsp/libgcc.a(_lshrdi3.o)
 .bss           0x0000000000000000        0x0 /cygdrive/c/TelinkIoTStudio/RDS/V5.1.2/toolchains/nds32le-elf-mculib-v5f/bin/../lib/gcc/riscv32-elf/10.3.0/mext-dsp/libgcc.a(_lshrdi3.o)
 .debug_info    0x0000000000000000      0x1ba /cygdrive/c/TelinkIoTStudio/RDS/V5.1.2/toolchains/nds32le-elf-mculib-v5f/bin/../lib/gcc/riscv32-elf/10.3.0/mext-dsp/libgcc.a(_lshrdi3.o)
 .debug_abbrev  0x0000000000000000      0x118 /cygdrive/c/TelinkIoTStudio/RDS/V5.1.2/toolchains/nds32le-elf-mculib-v5f/bin/../lib/gcc/riscv32-elf/10.3.0/mext-dsp/libgcc.a(_lshrdi3.o)
 .debug_loc     0x0000000000000000       0xc1 /cygdrive/c/TelinkIoTStudio/RDS/V5.1.2/toolchains/nds32le-elf-mculib-v5f/bin/../lib/gcc/riscv32-elf/10.3.0/mext-dsp/libgcc.a(_lshrdi3.o)
 .debug_aranges
                0x0000000000000000       0x20 /cygdrive/c/TelinkIoTStudio/RDS/V5.1.2/toolchains/nds32le-elf-mculib-v5f/bin/../lib/gcc/riscv32-elf/10.3.0/mext-dsp/libgcc.a(_lshrdi3.o)
 .debug_line    0x0000000000000000      0x178 /cygdrive/c/TelinkIoTStudio/RDS/V5.1.2/toolchains/nds32le-elf-mculib-v5f/bin/../lib/gcc/riscv32-elf/10.3.0/mext-dsp/libgcc.a(_lshrdi3.o)
 .debug_str     0x0000000000000000      0x330 /cygdrive/c/TelinkIoTStudio/RDS/V5.1.2/toolchains/nds32le-elf-mculib-v5f/bin/../lib/gcc/riscv32-elf/10.3.0/mext-dsp/libgcc.a(_lshrdi3.o)
 .comment       0x0000000000000000       0x3d /cygdrive/c/TelinkIoTStudio/RDS/V5.1.2/toolchains/nds32le-elf-mculib-v5f/bin/../lib/gcc/riscv32-elf/10.3.0/mext-dsp/libgcc.a(_lshrdi3.o)
 .debug_frame   0x0000000000000000       0x20 /cygdrive/c/TelinkIoTStudio/RDS/V5.1.2/toolchains/nds32le-elf-mculib-v5f/bin/../lib/gcc/riscv32-elf/10.3.0/mext-dsp/libgcc.a(_lshrdi3.o)
 .riscv.attributes
                0x0000000000000000       0x3a /cygdrive/c/TelinkIoTStudio/RDS/V5.1.2/toolchains/nds32le-elf-mculib-v5f/bin/../lib/gcc/riscv32-elf/10.3.0/mext-dsp/libgcc.a(_lshrdi3.o)
 .text          0x0000000000000000       0x34 /cygdrive/c/TelinkIoTStudio/RDS/V5.1.2/toolchains/nds32le-elf-mculib-v5f/bin/../lib/gcc/riscv32-elf/10.3.0/mext-dsp/libgcc.a(_ashldi3.o)
 .data          0x0000000000000000        0x0 /cygdrive/c/TelinkIoTStudio/RDS/V5.1.2/toolchains/nds32le-elf-mculib-v5f/bin/../lib/gcc/riscv32-elf/10.3.0/mext-dsp/libgcc.a(_ashldi3.o)
 .bss           0x0000000000000000        0x0 /cygdrive/c/TelinkIoTStudio/RDS/V5.1.2/toolchains/nds32le-elf-mculib-v5f/bin/../lib/gcc/riscv32-elf/10.3.0/mext-dsp/libgcc.a(_ashldi3.o)
 .debug_info    0x0000000000000000      0x1ba /cygdrive/c/TelinkIoTStudio/RDS/V5.1.2/toolchains/nds32le-elf-mculib-v5f/bin/../lib/gcc/riscv32-elf/10.3.0/mext-dsp/libgcc.a(_ashldi3.o)
 .debug_abbrev  0x0000000000000000      0x118 /cygdrive/c/TelinkIoTStudio/RDS/V5.1.2/toolchains/nds32le-elf-mculib-v5f/bin/../lib/gcc/riscv32-elf/10.3.0/mext-dsp/libgcc.a(_ashldi3.o)
 .debug_loc     0x0000000000000000       0xc4 /cygdrive/c/TelinkIoTStudio/RDS/V5.1.2/toolchains/nds32le-elf-mculib-v5f/bin/../lib/gcc/riscv32-elf/10.3.0/mext-dsp/libgcc.a(_ashldi3.o)
 .debug_aranges
                0x0000000000000000       0x20 /cygdrive/c/TelinkIoTStudio/RDS/V5.1.2/toolchains/nds32le-elf-mculib-v5f/bin/../lib/gcc/riscv32-elf/10.3.0/mext-dsp/libgcc.a(_ashldi3.o)
 .debug_line    0x0000000000000000      0x178 /cygdrive/c/TelinkIoTStudio/RDS/V5.1.2/toolchains/nds32le-elf-mculib-v5f/bin/../lib/gcc/riscv32-elf/10.3.0/mext-dsp/libgcc.a(_ashldi3.o)
 .debug_str     0x0000000000000000      0x330 /cygdrive/c/TelinkIoTStudio/RDS/V5.1.2/toolchains/nds32le-elf-mculib-v5f/bin/../lib/gcc/riscv32-elf/10.3.0/mext-dsp/libgcc.a(_ashldi3.o)
 .comment       0x0000000000000000       0x3d /cygdrive/c/TelinkIoTStudio/RDS/V5.1.2/toolchains/nds32le-elf-mculib-v5f/bin/../lib/gcc/riscv32-elf/10.3.0/mext-dsp/libgcc.a(_ashldi3.o)
 .debug_frame   0x0000000000000000       0x20 /cygdrive/c/TelinkIoTStudio/RDS/V5.1.2/toolchains/nds32le-elf-mculib-v5f/bin/../lib/gcc/riscv32-elf/10.3.0/mext-dsp/libgcc.a(_ashldi3.o)
 .riscv.attributes
                0x0000000000000000       0x3a /cygdrive/c/TelinkIoTStudio/RDS/V5.1.2/toolchains/nds32le-elf-mculib-v5f/bin/../lib/gcc/riscv32-elf/10.3.0/mext-dsp/libgcc.a(_ashldi3.o)
 .text          0x0000000000000000       0x60 /cygdrive/c/TelinkIoTStudio/RDS/V5.1.2/toolchains/nds32le-elf-mculib-v5f/bin/../lib/gcc/riscv32-elf/10.3.0/mext-dsp/libgcc.a(save-restore.o)
 .data          0x0000000000000000        0x0 /cygdrive/c/TelinkIoTStudio/RDS/V5.1.2/toolchains/nds32le-elf-mculib-v5f/bin/../lib/gcc/riscv32-elf/10.3.0/mext-dsp/libgcc.a(save-restore.o)
 .bss           0x0000000000000000        0x0 /cygdrive/c/TelinkIoTStudio/RDS/V5.1.2/toolchains/nds32le-elf-mculib-v5f/bin/../lib/gcc/riscv32-elf/10.3.0/mext-dsp/libgcc.a(save-restore.o)

Memory Configuration

Name             Origin             Length             Attributes
*default*        0x0000000000000000 0xffffffffffffffff

Linker script and memory map

LOAD /cygdrive/c/Users/fwteam/AppData/Local/Temp/bootloader_b92.elf.rcWSid.ltrans0.ltrans.o
LOAD ./platform/boot/b92/cstartup_b92.o
LOAD ./platform/boot/link_cfg.o
LOAD ../../../platform/lib/libdrivers_b92.a
LOAD /cygdrive/c/TelinkIoTStudio/RDS/V5.1.2/toolchains/nds32le-elf-mculib-v5f/bin/../lib/gcc/riscv32-elf/10.3.0/mext-dsp/libgcc.a
START GROUP
LOAD /cygdrive/c/TelinkIoTStudio/RDS/V5.1.2/toolchains/nds32le-elf-mculib-v5f/bin/../lib/gcc/riscv32-elf/10.3.0/../../../../riscv32-elf/lib/mext-dsp/libc.a
LOAD /cygdrive/c/TelinkIoTStudio/RDS/V5.1.2/toolchains/nds32le-elf-mculib-v5f/bin/../lib/gcc/riscv32-elf/10.3.0/../../../../riscv32-elf/lib/mext-dsp/libgloss.a
END GROUP
LOAD /cygdrive/c/TelinkIoTStudio/RDS/V5.1.2/toolchains/nds32le-elf-mculib-v5f/bin/../lib/gcc/riscv32-elf/10.3.0/mext-dsp/libgcc.a
                0x0000000020000000                NDS_SAG_LMA_FLASH = 0x20000000
                0x0000000020000000                . = (0x20000000 + __FW_OFFSET)
                0x0000000020000000                PROVIDE (BIN_BEGIN = .)

.vectors        0x0000000020000000      0x12a
 *(.vectors)
 .vectors       0x0000000020000000      0x12a ./platform/boot/b92/cstartup_b92.o
                0x0000000020000000                _RESET_ENTRY
                0x0000000000000000                . = 0x0

.retention_reset
                0x0000000000000000      0x130 load address 0x0000000020000130
 *(.retention_reset)
 .retention_reset
                0x0000000000000000      0x130 ./platform/boot/b92/cstartup_b92.o
                0x0000000000000000                _IRESET_ENTRY
                0x0000000000000000                PROVIDE (_RETENTION_RESET_VMA_START = ADDR (.retention_reset))
                0x0000000020000130                PROVIDE (_RETENTION_RESET_LMA_START = LOADADDR (.retention_reset))
                0x0000000000000130                PROVIDE (_RETENTION_RESET_VMA_END = .)
                0x0000000000000130                . = ALIGN (0x8)
                0x0000000000000130                PROVIDE (_AES_VMA_START = .)

.aes_data
 *(.aes_data)
                0x0000000000000130                PROVIDE (_AES_VMA_END = .)
                0x0000000000000130                . = ALIGN (0x8)

.ram_code       0x0000000000000200     0x2202 load address 0x0000000020000260
 *(.ram_code)
 .ram_code      0x0000000000000200     0x2038 /cygdrive/c/Users/fwteam/AppData/Local/Temp/bootloader_b92.elf.rcWSid.ltrans0.ltrans.o
                0x0000000000001de0                trap_entry
                0x0000000000001e20                entry_irq19
                0x0000000000001e98                entry_irq15
                0x0000000000001f10                entry_irq3
                0x0000000000001f88                entry_irq4
                0x0000000000002000                entry_irq1
                0x0000000000002078                entry_irq25
                0x00000000000020f0                entry_irq26
                0x0000000000002168                entry_irq27
                0x00000000000021e0                pm_retention_register_recover
 *fill*         0x0000000000002238       0xc8 
 .ram_code      0x0000000000002300      0x102 ./platform/boot/b92/cstartup_b92.o
                0x0000000000002300                __vectors
                0x0000000000002402                PROVIDE (_RAMCODE_VMA_END = .)
                0x0000000000000200                PROVIDE (_RAMCODE_VMA_START = ADDR (.ram_code))
                0x0000000020000260                PROVIDE (_RAMCODE_LMA_START = LOADADDR (.ram_code))
                [!provide]                        PROVIDE (_RAMCODE_SIZE = SIZEOF (.ram_code))
                0x0000000020002468                . = ALIGN ((LOADADDR (.ram_code) + SIZEOF (.ram_code)), 0x8)

.text           0x0000000020002468     0x14a6
 *(.text .stub .text.* .gnu.linkonce.t.*)
 .text          0x0000000020002468       0xba /cygdrive/c/Users/fwteam/AppData/Local/Temp/bootloader_b92.elf.rcWSid.ltrans0.ltrans.o
 *fill*         0x0000000020002522        0x2 
 .text.ev_rtc_update
                0x0000000020002524      0x204 /cygdrive/c/Users/fwteam/AppData/Local/Temp/bootloader_b92.elf.rcWSid.ltrans0.ltrans.o
 .text.flash_write
                0x0000000020002728        0x4 /cygdrive/c/Users/fwteam/AppData/Local/Temp/bootloader_b92.elf.rcWSid.ltrans0.ltrans.o
 *fill*         0x000000002000272c        0x0 
 .text.flash_read
                0x000000002000272c        0x4 /cygdrive/c/Users/fwteam/AppData/Local/Temp/bootloader_b92.elf.rcWSid.ltrans0.ltrans.o
 *fill*         0x0000000020002730        0x0 
 .text.xcrc32   0x0000000020002730       0x2e /cygdrive/c/Users/fwteam/AppData/Local/Temp/bootloader_b92.elf.rcWSid.ltrans0.ltrans.o
 *fill*         0x000000002000275e        0x2 
 .text.is_valid_fw_bootloader
                0x0000000020002760       0x28 /cygdrive/c/Users/fwteam/AppData/Local/Temp/bootloader_b92.elf.rcWSid.ltrans0.ltrans.o
 *fill*         0x0000000020002788        0x0 
 .text.efuse_read
                0x0000000020002788       0x88 /cygdrive/c/Users/fwteam/AppData/Local/Temp/bootloader_b92.elf.rcWSid.ltrans0.ltrans.o
 .text.memcmp.constprop.0
                0x0000000020002810       0x28 /cygdrive/c/Users/fwteam/AppData/Local/Temp/bootloader_b92.elf.rcWSid.ltrans0.ltrans.o
 .text.bootloader_loop
                0x0000000020002838       0x28 /cygdrive/c/Users/fwteam/AppData/Local/Temp/bootloader_b92.elf.rcWSid.ltrans0.ltrans.o
 .text.drv_irqMask_clear
                0x0000000020002860       0x26 /cygdrive/c/Users/fwteam/AppData/Local/Temp/bootloader_b92.elf.rcWSid.ltrans0.ltrans.o
 *fill*         0x0000000020002886        0x2 
 .text.efuse_calib_adc_vref.constprop.0.isra.0
                0x0000000020002888       0x1c /cygdrive/c/Users/fwteam/AppData/Local/Temp/bootloader_b92.elf.rcWSid.ltrans0.ltrans.o
 *fill*         0x00000000200028a4        0x0 
 .text.usb_get_vbus_detect_status
                0x00000000200028a4       0x1a /cygdrive/c/Users/fwteam/AppData/Local/Temp/bootloader_b92.elf.rcWSid.ltrans0.ltrans.o
 *fill*         0x00000000200028be        0x2 
 .text.drv_calib_freq_offset
                0x00000000200028c0       0x50 /cygdrive/c/Users/fwteam/AppData/Local/Temp/bootloader_b92.elf.rcWSid.ltrans0.ltrans.o
 *fill*         0x0000000020002910        0x0 
 .text.wd_turn_off_vbus_timer
                0x0000000020002910       0x12 /cygdrive/c/Users/fwteam/AppData/Local/Temp/bootloader_b92.elf.rcWSid.ltrans0.ltrans.o
 *fill*         0x0000000020002922        0x2 
 .text.drv_vbusWatchdogClose
                0x0000000020002924       0x66 /cygdrive/c/Users/fwteam/AppData/Local/Temp/bootloader_b92.elf.rcWSid.ltrans0.ltrans.o
 *fill*         0x000000002000298a        0x2 
 .text.drv_calibration
                0x000000002000298c       0xaa /cygdrive/c/Users/fwteam/AppData/Local/Temp/bootloader_b92.elf.rcWSid.ltrans0.ltrans.o
 *fill*         0x0000000020002a36        0x2 
 .text.internalFlashSizeCheck
                0x0000000020002a38       0x90 /cygdrive/c/Users/fwteam/AppData/Local/Temp/bootloader_b92.elf.rcWSid.ltrans0.ltrans.o
 *fill*         0x0000000020002ac8        0x0 
 .text.flash_erase
                0x0000000020002ac8       0x32 /cygdrive/c/Users/fwteam/AppData/Local/Temp/bootloader_b92.elf.rcWSid.ltrans0.ltrans.o
 *fill*         0x0000000020002afa        0x2 
 .text.bootloader_with_ota_check.constprop.0
                0x0000000020002afc      0x1aa /cygdrive/c/Users/fwteam/AppData/Local/Temp/bootloader_b92.elf.rcWSid.ltrans0.ltrans.o
 *fill*         0x0000000020002ca6        0x2 
 .text.cpu_wakeup_no_deepretn_back_init
                0x0000000020002ca8      0x1a2 /cygdrive/c/Users/fwteam/AppData/Local/Temp/bootloader_b92.elf.rcWSid.ltrans0.ltrans.o
 *fill*         0x0000000020002e4a        0x2 
 .text.platform_wakeup_init
                0x0000000020002e4c      0x3f6 /cygdrive/c/Users/fwteam/AppData/Local/Temp/bootloader_b92.elf.rcWSid.ltrans0.ltrans.o
 *fill*         0x0000000020003242        0x2 
 .text.drv_platform_init
                0x0000000020003244      0x2d8 /cygdrive/c/Users/fwteam/AppData/Local/Temp/bootloader_b92.elf.rcWSid.ltrans0.ltrans.o
 *fill*         0x000000002000351c        0x0 
 .text.ev_timer_executeCB.constprop.0.isra.0
                0x000000002000351c      0x15a /cygdrive/c/Users/fwteam/AppData/Local/Temp/bootloader_b92.elf.rcWSid.ltrans0.ltrans.o
 *fill*         0x0000000020003676        0x2 
 .text.ev_timer_process.constprop.0.isra.0
                0x0000000020003678       0xc8 /cygdrive/c/Users/fwteam/AppData/Local/Temp/bootloader_b92.elf.rcWSid.ltrans0.ltrans.o
 *fill*         0x0000000020003740        0x0 
 .text.memset   0x0000000020003740       0x88 /cygdrive/c/Users/fwteam/AppData/Local/Temp/bootloader_b92.elf.rcWSid.ltrans0.ltrans.o
                0x0000000020003740                memset
 .text.ev_buf_reset
                0x00000000200037c8       0xf0 /cygdrive/c/Users/fwteam/AppData/Local/Temp/bootloader_b92.elf.rcWSid.ltrans0.ltrans.o
 *fill*         0x00000000200038b8        0x0 
 .text.startup.main
                0x00000000200038b8       0x4e /cygdrive/c/Users/fwteam/AppData/Local/Temp/bootloader_b92.elf.rcWSid.ltrans0.ltrans.o
                0x00000000200038b8                main
 *fill*         0x0000000020003906        0x2 
 .text          0x0000000020003908        0x6 ./platform/boot/b92/cstartup_b92.o
                0x0000000020003908                entry_irq18
                0x0000000020003908                entry_irq10
                0x0000000020003908                entry_irq21
                0x0000000020003908                entry_irq8
                0x0000000020003908                entry_irq33
                0x0000000020003908                entry_irq12
                0x0000000020003908                entry_irq14
                0x0000000020003908                entry_irq2
                0x0000000020003908                entry_irq28
                0x0000000020003908                entry_irq43
                0x0000000020003908                entry_irq20
                0x0000000020003908                entry_irq46
                0x0000000020003908                entry_irq31
                0x0000000020003908                entry_irq16
                0x0000000020003908                entry_irq11
                0x0000000020003908                entry_irq5
                0x0000000020003908                entry_irq23
                0x0000000020003908                entry_irq13
                0x0000000020003908                entry_irq34
                0x0000000020003908                entry_irq36
                0x0000000020003908                entry_irq44
                0x0000000020003908                entry_irq45
                0x0000000020003908                entry_irq41
                0x0000000020003908                entry_irq38
                0x0000000020003908                entry_irq6
                0x0000000020003908                default_irq_entry
                0x0000000020003908                entry_irq39
                0x0000000020003908                entry_irq47
                0x0000000020003908                entry_irq22
                0x0000000020003908                entry_irq30
                0x0000000020003908                entry_irq42
                0x0000000020003908                entry_irq24
                0x0000000020003908                entry_irq17
                0x0000000020003908                entry_irq9
                0x0000000020003908                entry_irq35
                0x0000000020003908                entry_irq37
                0x0000000020003908                entry_irq40
                0x0000000020003908                entry_irq29
                0x0000000020003908                entry_irq7
                0x0000000020003908                entry_irq32
                0x000000002000390a                trap_handler
 *(.text.*personality*)
 *(.gnu.warning)

.rodata         0x0000000020003910      0x450
 *(.rodata .rodata.* .gnu.linkonce.r.*)
 .rodata.drv_calibration.str1.4
                0x0000000020003910       0x14 /cygdrive/c/Users/fwteam/AppData/Local/Temp/bootloader_b92.elf.rcWSid.ltrans0.ltrans.o
                                         0x11 (size before relaxing)
 .rodata        0x0000000020003924       0x20 /cygdrive/c/Users/fwteam/AppData/Local/Temp/bootloader_b92.elf.rcWSid.ltrans0.ltrans.o
 .rodata.crc32_table
                0x0000000020003944      0x400 /cygdrive/c/Users/fwteam/AppData/Local/Temp/bootloader_b92.elf.rcWSid.ltrans0.ltrans.o
 .rodata.flash_support_mid
                0x0000000020003d44       0x1c /cygdrive/c/Users/fwteam/AppData/Local/Temp/bootloader_b92.elf.rcWSid.ltrans0.ltrans.o

.eh_frame_hdr   0x0000000020003d60        0x0
 *(.eh_frame_hdr)
                0x0000000020003d60                . = ALIGN (0x20)

.eh_frame       0x0000000020003d60        0x0
 *(.eh_frame)
 .eh_frame      0x0000000020003d60        0x0 /cygdrive/c/TelinkIoTStudio/RDS/V5.1.2/toolchains/nds32le-elf-mculib-v5f/bin/../lib/gcc/riscv32-elf/10.3.0/mext-dsp/libgcc.a(save-restore.o)
                                         0xf8 (size before relaxing)

.rela.dyn       0x0000000020003d60        0x0
 .rela.vectors  0x0000000020003d60        0x0 ./platform/boot/b92/cstartup_b92.o
 .rela.retention_reset
                0x0000000020003d60        0x0 ./platform/boot/b92/cstartup_b92.o
 .rela.ram_code
                0x0000000020003d60        0x0 ./platform/boot/b92/cstartup_b92.o

.exec.itable    0x0000000020003d60        0x0
 *(.exec.itable)
                0x0000000000002408                . = ((0x80000 * __DRAM_1_EN) + (ALIGN ((ADDR (.ram_code) + SIZEOF (.ram_code)), 0x8) * __DRAM_DIS))
                0x0000000000002c08                PROVIDE (__global_pointer$ = (. + 0x800))

.data           0x0000000000002408       0x1c load address 0x0000000020003d60
 *(.data .data.* .gnu.linkonce.d.*)
 *(.gnu.linkonce.d.*personality*)
 *(.srodata.cst16)
 *(.srodata.cst8)
 *(.srodata.cst4)
 *(.srodata.cst2)
 *(.srodata .srodata.*)
 *(.sdata .sdata.* .gnu.linkonce.s.*)
 .sdata.T_code  0x0000000000002408        0x1 /cygdrive/c/Users/fwteam/AppData/Local/Temp/bootloader_b92.elf.rcWSid.ltrans0.ltrans.o
 *fill*         0x0000000000002409        0x3 
 .sdata.g_u32CfgFlashAddr
                0x000000000000240c        0x4 /cygdrive/c/Users/fwteam/AppData/Local/Temp/bootloader_b92.elf.rcWSid.ltrans0.ltrans.o
 .sdata.g_u32MacFlashAddr
                0x0000000000002410        0x4 /cygdrive/c/Users/fwteam/AppData/Local/Temp/bootloader_b92.elf.rcWSid.ltrans0.ltrans.o
 .sdata.sys_clk
                0x0000000000002414        0x6 /cygdrive/c/Users/fwteam/AppData/Local/Temp/bootloader_b92.elf.rcWSid.ltrans0.ltrans.o
 *fill*         0x000000000000241a        0x2 
 .sdata.utcTime
                0x000000000000241c        0x8 /cygdrive/c/Users/fwteam/AppData/Local/Temp/bootloader_b92.elf.rcWSid.ltrans0.ltrans.o
 *(.sdata2 .sdata2.* .gnu.linkonce.s.*)
                0x0000000000002424                PROVIDE (_DATA_VMA_END = .)
                0x0000000000002408                PROVIDE (_DATA_VMA_START = ADDR (.data))
                0x0000000020003d60                PROVIDE (_DATA_LMA_START = LOADADDR (.data))
                0x0000000000002428                . = ALIGN (0x8)
                0x0000000000002428                PROVIDE (_BSS_VMA_START = .)

.sbss           0x0000000000002428       0x80 load address 0x0000000020003d80
 *(.dynsbss)
 *(.sbss .sbss.* .gnu.linkonce.sb.*)
 .sbss.g_pm_mspi_cfg
                0x0000000000002428        0x4 /cygdrive/c/Users/fwteam/AppData/Local/Temp/bootloader_b92.elf.rcWSid.ltrans0.ltrans.o
                0x0000000000002428                g_pm_mspi_cfg
 .sbss.i_first  0x000000000000242c        0x8 /cygdrive/c/Users/fwteam/AppData/Local/Temp/bootloader_b92.elf.rcWSid.ltrans0.ltrans.o
 .sbss.q_first  0x0000000000002434        0x8 /cygdrive/c/Users/fwteam/AppData/Local/Temp/bootloader_b92.elf.rcWSid.ltrans0.ltrans.o
 .sbss.q_final  0x000000000000243c        0x8 /cygdrive/c/Users/fwteam/AppData/Local/Temp/bootloader_b92.elf.rcWSid.ltrans0.ltrans.o
 .sbss.rf_adc_iq
                0x0000000000002444        0x4 /cygdrive/c/Users/fwteam/AppData/Local/Temp/bootloader_b92.elf.rcWSid.ltrans0.ltrans.o
 .sbss.pm_retention_register_storage_data0
                0x0000000000002448        0x1 /cygdrive/c/Users/fwteam/AppData/Local/Temp/bootloader_b92.elf.rcWSid.ltrans0.ltrans.o
 *fill*         0x0000000000002449        0x3 
 .sbss.pm_retention_register_storage_buff1
                0x000000000000244c        0x5 /cygdrive/c/Users/fwteam/AppData/Local/Temp/bootloader_b92.elf.rcWSid.ltrans0.ltrans.o
 *fill*         0x0000000000002451        0x1 
 .sbss.g_rf_dcoc_iq_code
                0x0000000000002452        0x2 /cygdrive/c/Users/fwteam/AppData/Local/Temp/bootloader_b92.elf.rcWSid.ltrans0.ltrans.o
 .sbss.T_evtExcept
                0x0000000000002454        0x8 /cygdrive/c/Users/fwteam/AppData/Local/Temp/bootloader_b92.elf.rcWSid.ltrans0.ltrans.o
 .sbss.exception_mcause
                0x000000000000245c        0x4 /cygdrive/c/Users/fwteam/AppData/Local/Temp/bootloader_b92.elf.rcWSid.ltrans0.ltrans.o
 .sbss.exception_mdcause
                0x0000000000002460        0x4 /cygdrive/c/Users/fwteam/AppData/Local/Temp/bootloader_b92.elf.rcWSid.ltrans0.ltrans.o
 .sbss.exception_mepc
                0x0000000000002464        0x4 /cygdrive/c/Users/fwteam/AppData/Local/Temp/bootloader_b92.elf.rcWSid.ltrans0.ltrans.o
 .sbss.exception_mstatus
                0x0000000000002468        0x4 /cygdrive/c/Users/fwteam/AppData/Local/Temp/bootloader_b92.elf.rcWSid.ltrans0.ltrans.o
 .sbss.exception_mtval
                0x000000000000246c        0x4 /cygdrive/c/Users/fwteam/AppData/Local/Temp/bootloader_b92.elf.rcWSid.ltrans0.ltrans.o
 .sbss.g_plic_preempt_en
                0x0000000000002470        0x1 /cygdrive/c/Users/fwteam/AppData/Local/Temp/bootloader_b92.elf.rcWSid.ltrans0.ltrans.o
 .sbss.g_pm_reboot_event
                0x0000000000002471        0x1 /cygdrive/c/Users/fwteam/AppData/Local/Temp/bootloader_b92.elf.rcWSid.ltrans0.ltrans.o
 *fill*         0x0000000000002472        0x2 
 .sbss.g_pm_status_info
                0x0000000000002474        0x4 /cygdrive/c/Users/fwteam/AppData/Local/Temp/bootloader_b92.elf.rcWSid.ltrans0.ltrans.o
 .sbss.g_vbus_timer_turn_off_flag
                0x0000000000002478        0x1 /cygdrive/c/Users/fwteam/AppData/Local/Temp/bootloader_b92.elf.rcWSid.ltrans0.ltrans.o
 *fill*         0x0000000000002479        0x3 
 .sbss.g_vbus_timer_turn_off_start_tick
                0x000000000000247c        0x4 /cygdrive/c/Users/fwteam/AppData/Local/Temp/bootloader_b92.elf.rcWSid.ltrans0.ltrans.o
 .sbss.noAppFlg
                0x0000000000002480        0x1 /cygdrive/c/Users/fwteam/AppData/Local/Temp/bootloader_b92.elf.rcWSid.ltrans0.ltrans.o
 *fill*         0x0000000000002481        0x3 
 .sbss.prevSysTick
                0x0000000000002484        0x4 /cygdrive/c/Users/fwteam/AppData/Local/Temp/bootloader_b92.elf.rcWSid.ltrans0.ltrans.o
 .sbss.remSysTick
                0x0000000000002488        0x4 /cygdrive/c/Users/fwteam/AppData/Local/Temp/bootloader_b92.elf.rcWSid.ltrans0.ltrans.o
 .sbss.size_0_pool
                0x000000000000248c        0x4 /cygdrive/c/Users/fwteam/AppData/Local/Temp/bootloader_b92.elf.rcWSid.ltrans0.ltrans.o
 .sbss.size_1_pool
                0x0000000000002490        0x4 /cygdrive/c/Users/fwteam/AppData/Local/Temp/bootloader_b92.elf.rcWSid.ltrans0.ltrans.o
 .sbss.size_2_pool
                0x0000000000002494        0x4 /cygdrive/c/Users/fwteam/AppData/Local/Temp/bootloader_b92.elf.rcWSid.ltrans0.ltrans.o
 .sbss.size_3_pool
                0x0000000000002498        0x4 /cygdrive/c/Users/fwteam/AppData/Local/Temp/bootloader_b92.elf.rcWSid.ltrans0.ltrans.o
 .sbss.sysTimerPerUs
                0x000000000000249c        0x4 /cygdrive/c/Users/fwteam/AppData/Local/Temp/bootloader_b92.elf.rcWSid.ltrans0.ltrans.o
 .sbss.utcRemainingMs
                0x00000000000024a0        0x4 /cygdrive/c/Users/fwteam/AppData/Local/Temp/bootloader_b92.elf.rcWSid.ltrans0.ltrans.o
 .sbss.utcSeconds
                0x00000000000024a4        0x4 /cygdrive/c/Users/fwteam/AppData/Local/Temp/bootloader_b92.elf.rcWSid.ltrans0.ltrans.o
 *(.scommon .scommon.*)

.bss            0x00000000000024a8      0xe40 load address 0x0000000020003e00
 *(.dynbss)
 *(.bss .bss.* .gnu.linkonce.b.*)
 .bss.pm_retention_register_storage_buff2
                0x00000000000024a8       0x10 /cygdrive/c/Users/fwteam/AppData/Local/Temp/bootloader_b92.elf.rcWSid.ltrans0.ltrans.o
 .bss.ev_buf_vs
                0x00000000000024b8       0x20 /cygdrive/c/Users/fwteam/AppData/Local/Temp/bootloader_b92.elf.rcWSid.ltrans0.ltrans.o
 .bss.ev_timer  0x00000000000024d8      0x2ac /cygdrive/c/Users/fwteam/AppData/Local/Temp/bootloader_b92.elf.rcWSid.ltrans0.ltrans.o
 .bss.size_0_mem
                0x0000000000002784       0xc0 /cygdrive/c/Users/fwteam/AppData/Local/Temp/bootloader_b92.elf.rcWSid.ltrans0.ltrans.o
 .bss.size_1_mem
                0x0000000000002844      0x1e0 /cygdrive/c/Users/fwteam/AppData/Local/Temp/bootloader_b92.elf.rcWSid.ltrans0.ltrans.o
 .bss.size_2_mem
                0x0000000000002a24      0x4c0 /cygdrive/c/Users/fwteam/AppData/Local/Temp/bootloader_b92.elf.rcWSid.ltrans0.ltrans.o
 .bss.size_3_mem
                0x0000000000002ee4      0x400 /cygdrive/c/Users/fwteam/AppData/Local/Temp/bootloader_b92.elf.rcWSid.ltrans0.ltrans.o
 *(COMMON)
                0x00000000000032e8                . = ALIGN (0x8)
 *fill*         0x00000000000032e4        0x4 
                0x00000000000032e8                PROVIDE (_BSS_VMA_END = .)

.sdk_version    0x00000000000032e8        0x0 load address 0x0000000020003d7c
 *(.sdk_version)
                0x0000000000003d7c                PROVIDE (BIN_SIZE = ((LOADADDR (.sdk_version) + SIZEOF (.sdk_version)) - BIN_BEGIN))
                0x00000000000032e8                . = ALIGN (0x8)
                0x00000000000032e8                _end = .
                [!provide]                        PROVIDE (end = .)
                0x0000000000020000                PROVIDE (_STACK_TOP = (((0x20000 + (0x20000 * __IRAM_2_EN)) + (0x60000 * __DRAM_1_EN)) + (0x20000 * __DRAM_2_EN)))
                0x0000000000100000                PROVIDE (FLASH_SIZE = 0x100000)
                0x0000000000000001                ASSERT ((BIN_SIZE <= FLASH_SIZE), BIN FILE OVERFLOW)
OUTPUT(bootloader_b92.elf elf32-littleriscv)

.comment        0x0000000000000000       0x3c
 .comment       0x0000000000000000       0x3c /cygdrive/c/Users/fwteam/AppData/Local/Temp/bootloader_b92.elf.rcWSid.ltrans0.ltrans.o
                                         0x3d (size before relaxing)

.riscv.attributes
                0x0000000000000000       0x3a
 .riscv.attributes
                0x0000000000000000       0x3c /cygdrive/c/Users/fwteam/AppData/Local/Temp/bootloader_b92.elf.rcWSid.ltrans0.ltrans.o
 .riscv.attributes
                0x000000000000003c       0x33 ./platform/boot/b92/cstartup_b92.o
 .riscv.attributes
                0x000000000000006f       0x38 /cygdrive/c/TelinkIoTStudio/RDS/V5.1.2/toolchains/nds32le-elf-mculib-v5f/bin/../lib/gcc/riscv32-elf/10.3.0/mext-dsp/libgcc.a(save-restore.o)

.debug_line     0x0000000000000000      0x1c6
 .debug_line    0x0000000000000000      0x1c6 /cygdrive/c/TelinkIoTStudio/RDS/V5.1.2/toolchains/nds32le-elf-mculib-v5f/bin/../lib/gcc/riscv32-elf/10.3.0/mext-dsp/libgcc.a(save-restore.o)

.debug_info     0x0000000000000000       0x26
 .debug_info    0x0000000000000000       0x26 /cygdrive/c/TelinkIoTStudio/RDS/V5.1.2/toolchains/nds32le-elf-mculib-v5f/bin/../lib/gcc/riscv32-elf/10.3.0/mext-dsp/libgcc.a(save-restore.o)

.debug_abbrev   0x0000000000000000       0x14
 .debug_abbrev  0x0000000000000000       0x14 /cygdrive/c/TelinkIoTStudio/RDS/V5.1.2/toolchains/nds32le-elf-mculib-v5f/bin/../lib/gcc/riscv32-elf/10.3.0/mext-dsp/libgcc.a(save-restore.o)

.debug_aranges  0x0000000000000000       0x20
 .debug_aranges
                0x0000000000000000       0x20 /cygdrive/c/TelinkIoTStudio/RDS/V5.1.2/toolchains/nds32le-elf-mculib-v5f/bin/../lib/gcc/riscv32-elf/10.3.0/mext-dsp/libgcc.a(save-restore.o)

.debug_str      0x0000000000000000      0x128
 .debug_str     0x0000000000000000      0x128 /cygdrive/c/TelinkIoTStudio/RDS/V5.1.2/toolchains/nds32le-elf-mculib-v5f/bin/../lib/gcc/riscv32-elf/10.3.0/mext-dsp/libgcc.a(save-restore.o)
